(lp0
(dp1
S'end_state'
p2
(dp3
S'ddc'
p4
cnumpy.core.multiarray
_reconstruct
p5
(cnumpy
ndarray
p6
(I0
tp7
S'b'
p8
tp9
Rp10
(I1
(I3
tp11
cnumpy
dtype
p12
(S'f8'
p13
I0
I1
tp14
Rp15
(I3
S'<'
p16
NNNI-1
I-1
I0
tp17
bI00
S'\x00\x00\x00\x00\x00\x00\x00\x00\x00\x00\x00\x00\x00\x00\x00\x00\x00\x00\x00\x00\x00\x00\x00\x00'
p18
tp19
bsS'P'
p20
(lp21
(lp22
F0.5418728925425516
aF-0.9097400345728354
aF0.15462008001459945
aa(lp23
F0.5349075169144636
aF-1.0094971573377056
aF0.15461989332699552
aa(lp24
F0.3553446959620462
aF-0.996959481203308
aF0.1546169334329046
aa(lp25
F0.36231007159013423
aF-0.8972023584384379
aF0.15461712012050854
aa(lp26
F0.1994903513749846
aF-0.6749999999999999
aF1.4882238505431467e-07
aa(lp27
F0.1994903513749846
aF-0.775
aF1.4882238505431467e-07
aa(lp28
F0.019490351374984602
aF-0.775
aF1.4882238508207024e-07
aa(lp29
F0.019490351374984602
aF-0.6749999999999999
aF1.4882238508207024e-07
aa(lp30
F0.5043393038122258
aF-1.1679722364516483
aF0.8972759798976881
aa(lp31
F0.46224960851838337
aF-1.1772502056479528
aF0.8761483478081865
aa(lp32
F0.4706154799665211
aF-1.2243447181220923
aF0.8801632064361405
aa(lp33
F0.5127051752603635
aF-1.2150667489257878
aF0.9012908385256422
aasS'c'
p34
g5
(g6
(I0
tp35
g8
tp36
Rp37
(I1
(I3
tp38
g15
I00
S'{h\xa3\xd8\xbd\x94\xcc?\xcf\xbb?`P&\xea\xbf\xde\x061\xc2K\xc0\xeb?'
p39
tp40
bsS'dc'
p41
g10
sS'N'
p42
(lp43
(lp44
F0.0
aF-3.746011153673287e-08
aF0.9999999999999992
aa(lp45
F0.0
aF-3.746011153673287e-08
aF0.9999999999999992
aa(lp46
F0.0
aF-3.746011153673287e-08
aF0.9999999999999992
aa(lp47
F0.0
aF-3.746011153673287e-08
aF0.9999999999999992
aa(lp48
F7.850462293418875e-17
aF-6.162975822039155e-33
aF1.0
aa(lp49
F7.850462293418875e-17
aF-6.162975822039155e-33
aF1.0
aa(lp50
F7.850462293418875e-17
aF-6.162975822039155e-33
aF1.0
aa(lp51
F7.850462293418875e-17
aF-6.162975822039155e-33
aF1.0
aa(lp52
F-0.4539897323218329
aF-3.823790491608512e-05
aF0.8910069143863101
aa(lp53
F-0.4539897323218329
aF-3.823790491608512e-05
aF0.8910069143863101
aa(lp54
F-0.4539897323218329
aF-3.823790491608512e-05
aF0.8910069143863101
aa(lp55
F-0.4539897323218329
aF-3.823790491608512e-05
aF0.8910069143863101
aassS'inter_contacts'
p56
(dp57
g20
(lp58
(lp59
F0.1994903513749846
aF-0.6749999999999999
aF1.4882238505431467e-07
aa(lp60
F0.1994903513749846
aF-0.775
aF1.4882238505431467e-07
aa(lp61
F0.019490351374984602
aF-0.775
aF1.4882238508207024e-07
aa(lp62
F0.019490351374984602
aF-0.6749999999999999
aF1.4882238508207024e-07
aa(lp63
F0.5043393038122258
aF-1.1679722364516483
aF0.8972759798976881
aa(lp64
F0.46224960851838337
aF-1.1772502056479528
aF0.8761483478081865
aa(lp65
F0.4706154799665211
aF-1.2243447181220923
aF0.8801632064361405
aa(lp66
F0.5127051752603635
aF-1.2150667489257878
aF0.9012908385256422
aasg42
(lp67
(lp68
F7.850462293418875e-17
aF-6.162975822039155e-33
aF1.0
aa(lp69
F7.850462293418875e-17
aF-6.162975822039155e-33
aF1.0
aa(lp70
F7.850462293418875e-17
aF-6.162975822039155e-33
aF1.0
aa(lp71
F7.850462293418875e-17
aF-6.162975822039155e-33
aF1.0
aa(lp72
F-0.4539897323218329
aF-3.823790491608512e-05
aF0.8910069143863101
aa(lp73
F-0.4539897323218329
aF-3.823790491608512e-05
aF0.8910069143863101
aa(lp74
F-0.4539897323218329
aF-3.823790491608512e-05
aF0.8910069143863101
aa(lp75
F-0.4539897323218329
aF-3.823790491608512e-05
aF0.8910069143863101
aassS'start_state'
p76
(dp77
g4
g10
sg20
(lp78
(lp79
F0.1994903513749846
aF-0.8649999999999998
aF1.4882238505431467e-07
aa(lp80
F0.1994903513749846
aF-0.9649999999999999
aF1.4882238505431467e-07
aa(lp81
F0.019490351374984602
aF-0.9649999999999999
aF1.4882238508207024e-07
aa(lp82
F0.019490351374984602
aF-0.8649999999999998
aF1.4882238508207024e-07
aa(lp83
F0.1994903513749846
aF-0.6749999999999999
aF1.4882238505431467e-07
aa(lp84
F0.1994903513749846
aF-0.775
aF1.4882238505431467e-07
aa(lp85
F0.019490351374984602
aF-0.775
aF1.4882238508207024e-07
aa(lp86
F0.019490351374984602
aF-0.6749999999999999
aF1.4882238508207024e-07
aa(lp87
F0.5043393038122258
aF-1.1679722364516483
aF0.8972759798976881
aa(lp88
F0.46224960851838337
aF-1.1772502056479528
aF0.8761483478081865
aa(lp89
F0.4706154799665211
aF-1.2243447181220923
aF0.8801632064361405
aa(lp90
F0.5127051752603635
aF-1.2150667489257878
aF0.9012908385256422
aasg34
g5
(g6
(I0
tp91
g8
tp92
Rp93
(I1
(I3
tp94
g15
I00
S'\xe6\x8f\xe2\xa9\x06\x12\xc9?\x19\xc7m\x1eE\x0e\xea\xbf@\xcc\xabr\xc5D\xeb?'
p95
tp96
bsg41
g10
sg42
(lp97
(lp98
F7.850462293418875e-17
aF-6.162975822039155e-33
aF1.0
aa(lp99
F7.850462293418875e-17
aF-6.162975822039155e-33
aF1.0
aa(lp100
F7.850462293418875e-17
aF-6.162975822039155e-33
aF1.0
aa(lp101
F7.850462293418875e-17
aF-6.162975822039155e-33
aF1.0
aa(lp102
F7.850462293418875e-17
aF-6.162975822039155e-33
aF1.0
aa(lp103
F7.850462293418875e-17
aF-6.162975822039155e-33
aF1.0
aa(lp104
F7.850462293418875e-17
aF-6.162975822039155e-33
aF1.0
aa(lp105
F7.850462293418875e-17
aF-6.162975822039155e-33
aF1.0
aa(lp106
F-0.4539897323218329
aF-3.823790491608512e-05
aF0.8910069143863101
aa(lp107
F-0.4539897323218329
aF-3.823790491608512e-05
aF0.8910069143863101
aa(lp108
F-0.4539897323218329
aF-3.823790491608512e-05
aF0.8910069143863101
aa(lp109
F-0.4539897323218329
aF-3.823790491608512e-05
aF0.8910069143863101
aassa(dp110
g2
(dp111
g4
g10
sg20
(lp112
(lp113
F0.5418728925425516
aF-0.9097400345728354
aF0.15462008001459945
aa(lp114
F0.5349075169144636
aF-1.0094971573377056
aF0.15461989332699552
aa(lp115
F0.3553446959620462
aF-0.996959481203308
aF0.1546169334329046
aa(lp116
F0.36231007159013423
aF-0.8972023584384379
aF0.15461712012050854
aa(lp117
F0.7966491058928489
aF-0.6078349265960351
aF0.301686845916937
aa(lp118
F0.8215964181204882
aF-0.7046730988118656
aF0.3016906718019755
aa(lp119
F0.6472877085841329
aF-0.749578261219253
aF0.30167765884759035
aa(lp120
F0.6223403963564935
aF-0.6527400890034225
aF0.3016738329625518
aa(lp121
F0.5043393038122258
aF-1.1679722364516483
aF0.8972759798976881
aa(lp122
F0.46224960851838337
aF-1.1772502056479528
aF0.8761483478081865
aa(lp123
F0.4706154799665211
aF-1.2243447181220923
aF0.8801632064361405
aa(lp124
F0.5127051752603635
aF-1.2150667489257878
aF0.9012908385256422
aasg34
g5
(g6
(I0
tp125
g8
tp126
Rp127
(I1
(I3
tp128
g15
I00
S'r\xfe\xe4\x9e\xe1/\xe0?\x98\x9d{\xb1q\x17\xe9\xbf2\xfb1\x98\xb8\xa2\xef?'
p129
tp130
bsg41
g10
sg42
(lp131
(lp132
F0.0
aF-3.746011153673287e-08
aF0.9999999999999992
aa(lp133
F0.0
aF-3.746011153673287e-08
aF0.9999999999999992
aa(lp134
F0.0
aF-3.746011153673287e-08
aF0.9999999999999992
aa(lp135
F0.0
aF-3.746011153673287e-08
aF0.9999999999999992
aa(lp136
F-3.12591291331611e-13
aF-3.7460091891103785e-08
aF0.9999999999999993
aa(lp137
F-3.12591291331611e-13
aF-3.7460091891103785e-08
aF0.9999999999999993
aa(lp138
F-3.12591291331611e-13
aF-3.7460091891103785e-08
aF0.9999999999999993
aa(lp139
F-3.12591291331611e-13
aF-3.7460091891103785e-08
aF0.9999999999999993
aa(lp140
F-0.4539897323218329
aF-3.823790491608512e-05
aF0.8910069143863101
aa(lp141
F-0.4539897323218329
aF-3.823790491608512e-05
aF0.8910069143863101
aa(lp142
F-0.4539897323218329
aF-3.823790491608512e-05
aF0.8910069143863101
aa(lp143
F-0.4539897323218329
aF-3.823790491608512e-05
aF0.8910069143863101
aassg56
(dp144
g20
(lp145
(lp146
F0.5418728925425516
aF-0.9097400345728354
aF0.15462008001459945
aa(lp147
F0.5349075169144636
aF-1.0094971573377056
aF0.15461989332699552
aa(lp148
F0.3553446959620462
aF-0.996959481203308
aF0.1546169334329046
aa(lp149
F0.36231007159013423
aF-0.8972023584384379
aF0.15461712012050854
aa(lp150
F0.5043393038122258
aF-1.1679722364516483
aF0.8972759798976881
aa(lp151
F0.46224960851838337
aF-1.1772502056479528
aF0.8761483478081865
aa(lp152
F0.4706154799665211
aF-1.2243447181220923
aF0.8801632064361405
aa(lp153
F0.5127051752603635
aF-1.2150667489257878
aF0.9012908385256422
aasg42
(lp154
(lp155
F0.0
aF-3.746011153673287e-08
aF0.9999999999999992
aa(lp156
F0.0
aF-3.746011153673287e-08
aF0.9999999999999992
aa(lp157
F0.0
aF-3.746011153673287e-08
aF0.9999999999999992
aa(lp158
F0.0
aF-3.746011153673287e-08
aF0.9999999999999992
aa(lp159
F-0.4539897323218329
aF-3.823790491608512e-05
aF0.8910069143863101
aa(lp160
F-0.4539897323218329
aF-3.823790491608512e-05
aF0.8910069143863101
aa(lp161
F-0.4539897323218329
aF-3.823790491608512e-05
aF0.8910069143863101
aa(lp162
F-0.4539897323218329
aF-3.823790491608512e-05
aF0.8910069143863101
aassg76
(dp163
g4
g10
sg20
(lp164
(lp165
F0.5418728925425516
aF-0.9097400345728354
aF0.15462008001459945
aa(lp166
F0.5349075169144636
aF-1.0094971573377056
aF0.15461989332699552
aa(lp167
F0.3553446959620462
aF-0.996959481203308
aF0.1546169334329046
aa(lp168
F0.36231007159013423
aF-0.8972023584384379
aF0.15461712012050854
aa(lp169
F0.1994903513749846
aF-0.6749999999999999
aF1.4882238505431467e-07
aa(lp170
F0.1994903513749846
aF-0.775
aF1.4882238505431467e-07
aa(lp171
F0.019490351374984602
aF-0.775
aF1.4882238508207024e-07
aa(lp172
F0.019490351374984602
aF-0.6749999999999999
aF1.4882238508207024e-07
aa(lp173
F0.5043393038122258
aF-1.1679722364516483
aF0.8972759798976881
aa(lp174
F0.46224960851838337
aF-1.1772502056479528
aF0.8761483478081865
aa(lp175
F0.4706154799665211
aF-1.2243447181220923
aF0.8801632064361405
aa(lp176
F0.5127051752603635
aF-1.2150667489257878
aF0.9012908385256422
aasg34
g5
(g6
(I0
tp177
g8
tp178
Rp179
(I1
(I3
tp180
g15
I00
S'{h\xa3\xd8\xbd\x94\xcc?\xcf\xbb?`P&\xea\xbf\xde\x061\xc2K\xc0\xeb?'
p181
tp182
bsg41
g10
sg42
(lp183
(lp184
F0.0
aF-3.746011153673287e-08
aF0.9999999999999992
aa(lp185
F0.0
aF-3.746011153673287e-08
aF0.9999999999999992
aa(lp186
F0.0
aF-3.746011153673287e-08
aF0.9999999999999992
aa(lp187
F0.0
aF-3.746011153673287e-08
aF0.9999999999999992
aa(lp188
F7.850462293418875e-17
aF-6.162975822039155e-33
aF1.0
aa(lp189
F7.850462293418875e-17
aF-6.162975822039155e-33
aF1.0
aa(lp190
F7.850462293418875e-17
aF-6.162975822039155e-33
aF1.0
aa(lp191
F7.850462293418875e-17
aF-6.162975822039155e-33
aF1.0
aa(lp192
F-0.4539897323218329
aF-3.823790491608512e-05
aF0.8910069143863101
aa(lp193
F-0.4539897323218329
aF-3.823790491608512e-05
aF0.8910069143863101
aa(lp194
F-0.4539897323218329
aF-3.823790491608512e-05
aF0.8910069143863101
aa(lp195
F-0.4539897323218329
aF-3.823790491608512e-05
aF0.8910069143863101
aassa(dp196
g2
(dp197
g4
g10
sg20
(lp198
(lp199
F0.7731998543114522
aF-0.7914539358688143
aF0.3100062324472055
aa(lp200
F0.8001416063959199
aF-0.8877562824089705
aF0.30999947193981153
aa(lp201
F0.626797382285402
aF-0.9362514356119587
aF0.3099903028288903
aa(lp202
F0.5998556302009344
aF-0.8399490890718023
aF0.30999706333628424
aa(lp203
F0.7966491058928489
aF-0.6078349265960351
aF0.301686845916937
aa(lp204
F0.8215964181204882
aF-0.7046730988118656
aF0.3016906718019755
aa(lp205
F0.6472877085841329
aF-0.749578261219253
aF0.30167765884759035
aa(lp206
F0.6223403963564935
aF-0.6527400890034225
aF0.3016738329625518
aa(lp207
F0.5043393038122258
aF-1.1679722364516483
aF0.8972759798976881
aa(lp208
F0.46224960851838337
aF-1.1772502056479528
aF0.8761483478081865
aa(lp209
F0.4706154799665211
aF-1.2243447181220923
aF0.8801632064361405
aa(lp210
F0.5127051752603635
aF-1.2150667489257878
aF0.9012908385256422
aasg34
g5
(g6
(I0
tp211
g8
tp212
Rp213
(I1
(I3
tp214
g15
I00
S'\xb9\xe4\xda\x0c\xf0\x82\xe3?\xd9\xfcCXB\x7f\xe8\xbf\x9f\x07\xa1t\xf5\x7f\xf0?'
p215
tp216
bsg41
g10
sg42
(lp217
(lp218
F-3.12591291331611e-13
aF-3.7460091891103785e-08
aF0.9999999999999993
aa(lp219
F-3.12591291331611e-13
aF-3.7460091891103785e-08
aF0.9999999999999993
aa(lp220
F-3.12591291331611e-13
aF-3.7460091891103785e-08
aF0.9999999999999993
aa(lp221
F-3.12591291331611e-13
aF-3.7460091891103785e-08
aF0.9999999999999993
aa(lp222
F-3.12591291331611e-13
aF-3.7460091891103785e-08
aF0.9999999999999993
aa(lp223
F-3.12591291331611e-13
aF-3.7460091891103785e-08
aF0.9999999999999993
aa(lp224
F-3.12591291331611e-13
aF-3.7460091891103785e-08
aF0.9999999999999993
aa(lp225
F-3.12591291331611e-13
aF-3.7460091891103785e-08
aF0.9999999999999993
aa(lp226
F-0.4539897323218329
aF-3.823790491608512e-05
aF0.8910069143863101
aa(lp227
F-0.4539897323218329
aF-3.823790491608512e-05
aF0.8910069143863101
aa(lp228
F-0.4539897323218329
aF-3.823790491608512e-05
aF0.8910069143863101
aa(lp229
F-0.4539897323218329
aF-3.823790491608512e-05
aF0.8910069143863101
aassg56
(dp230
g20
(lp231
(lp232
F0.7966491058928489
aF-0.6078349265960351
aF0.301686845916937
aa(lp233
F0.8215964181204882
aF-0.7046730988118656
aF0.3016906718019755
aa(lp234
F0.6472877085841329
aF-0.749578261219253
aF0.30167765884759035
aa(lp235
F0.6223403963564935
aF-0.6527400890034225
aF0.3016738329625518
aa(lp236
F0.5043393038122258
aF-1.1679722364516483
aF0.8972759798976881
aa(lp237
F0.46224960851838337
aF-1.1772502056479528
aF0.8761483478081865
aa(lp238
F0.4706154799665211
aF-1.2243447181220923
aF0.8801632064361405
aa(lp239
F0.5127051752603635
aF-1.2150667489257878
aF0.9012908385256422
aasg42
(lp240
(lp241
F-3.12591291331611e-13
aF-3.7460091891103785e-08
aF0.9999999999999993
aa(lp242
F-3.12591291331611e-13
aF-3.7460091891103785e-08
aF0.9999999999999993
aa(lp243
F-3.12591291331611e-13
aF-3.7460091891103785e-08
aF0.9999999999999993
aa(lp244
F-3.12591291331611e-13
aF-3.7460091891103785e-08
aF0.9999999999999993
aa(lp245
F-0.4539897323218329
aF-3.823790491608512e-05
aF0.8910069143863101
aa(lp246
F-0.4539897323218329
aF-3.823790491608512e-05
aF0.8910069143863101
aa(lp247
F-0.4539897323218329
aF-3.823790491608512e-05
aF0.8910069143863101
aa(lp248
F-0.4539897323218329
aF-3.823790491608512e-05
aF0.8910069143863101
aassg76
(dp249
g4
g10
sg20
(lp250
(lp251
F0.5418728925425516
aF-0.9097400345728354
aF0.15462008001459945
aa(lp252
F0.5349075169144636
aF-1.0094971573377056
aF0.15461989332699552
aa(lp253
F0.3553446959620462
aF-0.996959481203308
aF0.1546169334329046
aa(lp254
F0.36231007159013423
aF-0.8972023584384379
aF0.15461712012050854
aa(lp255
F0.7966491058928489
aF-0.6078349265960351
aF0.301686845916937
aa(lp256
F0.8215964181204882
aF-0.7046730988118656
aF0.3016906718019755
aa(lp257
F0.6472877085841329
aF-0.749578261219253
aF0.30167765884759035
aa(lp258
F0.6223403963564935
aF-0.6527400890034225
aF0.3016738329625518
aa(lp259
F0.5043393038122258
aF-1.1679722364516483
aF0.8972759798976881
aa(lp260
F0.46224960851838337
aF-1.1772502056479528
aF0.8761483478081865
aa(lp261
F0.4706154799665211
aF-1.2243447181220923
aF0.8801632064361405
aa(lp262
F0.5127051752603635
aF-1.2150667489257878
aF0.9012908385256422
aasg34
g5
(g6
(I0
tp263
g8
tp264
Rp265
(I1
(I3
tp266
g15
I00
S'r\xfe\xe4\x9e\xe1/\xe0?\x98\x9d{\xb1q\x17\xe9\xbf2\xfb1\x98\xb8\xa2\xef?'
p267
tp268
bsg41
g10
sg42
(lp269
(lp270
F0.0
aF-3.746011153673287e-08
aF0.9999999999999992
aa(lp271
F0.0
aF-3.746011153673287e-08
aF0.9999999999999992
aa(lp272
F0.0
aF-3.746011153673287e-08
aF0.9999999999999992
aa(lp273
F0.0
aF-3.746011153673287e-08
aF0.9999999999999992
aa(lp274
F-3.12591291331611e-13
aF-3.7460091891103785e-08
aF0.9999999999999993
aa(lp275
F-3.12591291331611e-13
aF-3.7460091891103785e-08
aF0.9999999999999993
aa(lp276
F-3.12591291331611e-13
aF-3.7460091891103785e-08
aF0.9999999999999993
aa(lp277
F-3.12591291331611e-13
aF-3.7460091891103785e-08
aF0.9999999999999993
aa(lp278
F-0.4539897323218329
aF-3.823790491608512e-05
aF0.8910069143863101
aa(lp279
F-0.4539897323218329
aF-3.823790491608512e-05
aF0.8910069143863101
aa(lp280
F-0.4539897323218329
aF-3.823790491608512e-05
aF0.8910069143863101
aa(lp281
F-0.4539897323218329
aF-3.823790491608512e-05
aF0.8910069143863101
aassa(dp282
g2
(dp283
g4
g10
sg20
(lp284
(lp285
F0.7731998543114522
aF-0.7914539358688143
aF0.3100062324472055
aa(lp286
F0.8001416063959199
aF-0.8877562824089705
aF0.30999947193981153
aa(lp287
F0.626797382285402
aF-0.9362514356119587
aF0.3099903028288903
aa(lp288
F0.5998556302009344
aF-0.8399490890718023
aF0.30999706333628424
aa(lp289
F0.7966491058928489
aF-0.6078349265960351
aF0.301686845916937
aa(lp290
F0.8215964181204882
aF-0.7046730988118656
aF0.3016906718019755
aa(lp291
F0.6472877085841329
aF-0.749578261219253
aF0.30167765884759035
aa(lp292
F0.6223403963564935
aF-0.6527400890034225
aF0.3016738329625518
aa(lp293
F0.9788850300367794
aF-1.1865561694662132
aF1.1227799735736623
aa(lp294
F0.9473041801946676
aF-1.1549838705284163
aF1.1051777047884006
aa(lp295
F0.9185943921811105
aF-1.191093897667093
aF1.0919182171258142
aa(lp296
F0.9501752420232223
aF-1.22266619660489
aF1.1095204859110759
aasg34
g5
(g6
(I0
tp297
g8
tp298
Rp299
(I1
(I3
tp300
g15
I00
S'(p\x03\xa1\x1a\x7f\xe6?V\x10\xf6\xdd\xef\x12\xe8\xbf\xa3\xb4\xbf\xdb\x05\xfe\xf0?'
p301
tp302
bsg41
g10
sg42
(lp303
(lp304
F-3.12591291331611e-13
aF-3.7460091891103785e-08
aF0.9999999999999993
aa(lp305
F-3.12591291331611e-13
aF-3.7460091891103785e-08
aF0.9999999999999993
aa(lp306
F-3.12591291331611e-13
aF-3.7460091891103785e-08
aF0.9999999999999993
aa(lp307
F-3.12591291331611e-13
aF-3.7460091891103785e-08
aF0.9999999999999993
aa(lp308
F-3.12591291331611e-13
aF-3.7460091891103785e-08
aF0.9999999999999993
aa(lp309
F-3.12591291331611e-13
aF-3.7460091891103785e-08
aF0.9999999999999993
aa(lp310
F-3.12591291331611e-13
aF-3.7460091891103785e-08
aF0.9999999999999993
aa(lp311
F-3.12591291331611e-13
aF-3.7460091891103785e-08
aF0.9999999999999993
aa(lp312
F-0.4539897323218329
aF-3.823790491608512e-05
aF0.8910069143863101
aa(lp313
F-0.4539897323218329
aF-3.823790491608512e-05
aF0.8910069143863101
aa(lp314
F-0.4539897323218329
aF-3.823790491608512e-05
aF0.8910069143863101
aa(lp315
F-0.4539897323218329
aF-3.823790491608512e-05
aF0.8910069143863101
aassg56
(dp316
g20
(lp317
(lp318
F0.7731998543114522
aF-0.7914539358688143
aF0.3100062324472055
aa(lp319
F0.8001416063959199
aF-0.8877562824089705
aF0.30999947193981153
aa(lp320
F0.626797382285402
aF-0.9362514356119587
aF0.3099903028288903
aa(lp321
F0.5998556302009344
aF-0.8399490890718023
aF0.30999706333628424
aa(lp322
F0.7966491058928489
aF-0.6078349265960351
aF0.301686845916937
aa(lp323
F0.8215964181204882
aF-0.7046730988118656
aF0.3016906718019755
aa(lp324
F0.6472877085841329
aF-0.749578261219253
aF0.30167765884759035
aa(lp325
F0.6223403963564935
aF-0.6527400890034225
aF0.3016738329625518
aasg42
(lp326
(lp327
F-3.12591291331611e-13
aF-3.7460091891103785e-08
aF0.9999999999999993
aa(lp328
F-3.12591291331611e-13
aF-3.7460091891103785e-08
aF0.9999999999999993
aa(lp329
F-3.12591291331611e-13
aF-3.7460091891103785e-08
aF0.9999999999999993
aa(lp330
F-3.12591291331611e-13
aF-3.7460091891103785e-08
aF0.9999999999999993
aa(lp331
F-3.12591291331611e-13
aF-3.7460091891103785e-08
aF0.9999999999999993
aa(lp332
F-3.12591291331611e-13
aF-3.7460091891103785e-08
aF0.9999999999999993
aa(lp333
F-3.12591291331611e-13
aF-3.7460091891103785e-08
aF0.9999999999999993
aa(lp334
F-3.12591291331611e-13
aF-3.7460091891103785e-08
aF0.9999999999999993
aassg76
(dp335
g4
g10
sg20
(lp336
(lp337
F0.7731998543114522
aF-0.7914539358688143
aF0.3100062324472055
aa(lp338
F0.8001416063959199
aF-0.8877562824089705
aF0.30999947193981153
aa(lp339
F0.626797382285402
aF-0.9362514356119587
aF0.3099903028288903
aa(lp340
F0.5998556302009344
aF-0.8399490890718023
aF0.30999706333628424
aa(lp341
F0.7966491058928489
aF-0.6078349265960351
aF0.301686845916937
aa(lp342
F0.8215964181204882
aF-0.7046730988118656
aF0.3016906718019755
aa(lp343
F0.6472877085841329
aF-0.749578261219253
aF0.30167765884759035
aa(lp344
F0.6223403963564935
aF-0.6527400890034225
aF0.3016738329625518
aa(lp345
F0.5043393038122258
aF-1.1679722364516483
aF0.8972759798976881
aa(lp346
F0.46224960851838337
aF-1.1772502056479528
aF0.8761483478081865
aa(lp347
F0.4706154799665211
aF-1.2243447181220923
aF0.8801632064361405
aa(lp348
F0.5127051752603635
aF-1.2150667489257878
aF0.9012908385256422
aasg34
g5
(g6
(I0
tp349
g8
tp350
Rp351
(I1
(I3
tp352
g15
I00
S'\xb9\xe4\xda\x0c\xf0\x82\xe3?\xd9\xfcCXB\x7f\xe8\xbf\x9f\x07\xa1t\xf5\x7f\xf0?'
p353
tp354
bsg41
g10
sg42
(lp355
(lp356
F-3.12591291331611e-13
aF-3.7460091891103785e-08
aF0.9999999999999993
aa(lp357
F-3.12591291331611e-13
aF-3.7460091891103785e-08
aF0.9999999999999993
aa(lp358
F-3.12591291331611e-13
aF-3.7460091891103785e-08
aF0.9999999999999993
aa(lp359
F-3.12591291331611e-13
aF-3.7460091891103785e-08
aF0.9999999999999993
aa(lp360
F-3.12591291331611e-13
aF-3.7460091891103785e-08
aF0.9999999999999993
aa(lp361
F-3.12591291331611e-13
aF-3.7460091891103785e-08
aF0.9999999999999993
aa(lp362
F-3.12591291331611e-13
aF-3.7460091891103785e-08
aF0.9999999999999993
aa(lp363
F-3.12591291331611e-13
aF-3.7460091891103785e-08
aF0.9999999999999993
aa(lp364
F-0.4539897323218329
aF-3.823790491608512e-05
aF0.8910069143863101
aa(lp365
F-0.4539897323218329
aF-3.823790491608512e-05
aF0.8910069143863101
aa(lp366
F-0.4539897323218329
aF-3.823790491608512e-05
aF0.8910069143863101
aa(lp367
F-0.4539897323218329
aF-3.823790491608512e-05
aF0.8910069143863101
aassa(dp368
g2
(dp369
g4
g10
sg20
(lp370
(lp371
F0.7731998543114522
aF-0.7914539358688143
aF0.3100062324472055
aa(lp372
F0.8001416063959199
aF-0.8877562824089705
aF0.30999947193981153
aa(lp373
F0.626797382285402
aF-0.9362514356119587
aF0.3099903028288903
aa(lp374
F0.5998556302009344
aF-0.8399490890718023
aF0.30999706333628424
aa(lp375
F1.1039742637954673
aF-0.6796826977959024
aF0.47579917121887016
aa(lp376
F1.0690011383760667
aF-0.7733677045604013
aF0.4757965847831301
aa(lp377
F0.9003681261696115
aF-0.7104160787424737
aF0.4757947130719249
aa(lp378
F0.9353412515890122
aF-0.6167310719779748
aF0.4757972995076649
aa(lp379
F0.9788850300367794
aF-1.1865561694662132
aF1.1227799735736623
aa(lp380
F0.9473041801946676
aF-1.1549838705284163
aF1.1051777047884006
aa(lp381
F0.9185943921811105
aF-1.191093897667093
aF1.0919182171258142
aa(lp382
F0.9501752420232223
aF-1.22266619660489
aF1.1095204859110759
aasg34
g5
(g6
(I0
tp383
g8
tp384
Rp385
(I1
(I3
tp386
g15
I00
S'\x89Z\xf7cq\xa0\xe9?\x03\xb52\x99\xb8\x02\xe8\xbfJ\xc9:\xb9\t\xc9\xf1?'
p387
tp388
bsg41
g10
sg42
(lp389
(lp390
F-3.12591291331611e-13
aF-3.7460091891103785e-08
aF0.9999999999999993
aa(lp391
F-3.12591291331611e-13
aF-3.7460091891103785e-08
aF0.9999999999999993
aa(lp392
F-3.12591291331611e-13
aF-3.7460091891103785e-08
aF0.9999999999999993
aa(lp393
F-3.12591291331611e-13
aF-3.7460091891103785e-08
aF0.9999999999999993
aa(lp394
F-3.12591291331611e-13
aF-3.7460091891103785e-08
aF0.9999999999999993
aa(lp395
F-3.12591291331611e-13
aF-3.7460091891103785e-08
aF0.9999999999999993
aa(lp396
F-3.12591291331611e-13
aF-3.7460091891103785e-08
aF0.9999999999999993
aa(lp397
F-3.12591291331611e-13
aF-3.7460091891103785e-08
aF0.9999999999999993
aa(lp398
F-0.4539897323218329
aF-3.823790491608512e-05
aF0.8910069143863101
aa(lp399
F-0.4539897323218329
aF-3.823790491608512e-05
aF0.8910069143863101
aa(lp400
F-0.4539897323218329
aF-3.823790491608512e-05
aF0.8910069143863101
aa(lp401
F-0.4539897323218329
aF-3.823790491608512e-05
aF0.8910069143863101
aassg56
(dp402
g20
(lp403
(lp404
F0.7731998543114522
aF-0.7914539358688143
aF0.3100062324472055
aa(lp405
F0.8001416063959199
aF-0.8877562824089705
aF0.30999947193981153
aa(lp406
F0.626797382285402
aF-0.9362514356119587
aF0.3099903028288903
aa(lp407
F0.5998556302009344
aF-0.8399490890718023
aF0.30999706333628424
aa(lp408
F0.9788850300367794
aF-1.1865561694662132
aF1.1227799735736623
aa(lp409
F0.9473041801946676
aF-1.1549838705284163
aF1.1051777047884006
aa(lp410
F0.9185943921811105
aF-1.191093897667093
aF1.0919182171258142
aa(lp411
F0.9501752420232223
aF-1.22266619660489
aF1.1095204859110759
aasg42
(lp412
(lp413
F-3.12591291331611e-13
aF-3.7460091891103785e-08
aF0.9999999999999993
aa(lp414
F-3.12591291331611e-13
aF-3.7460091891103785e-08
aF0.9999999999999993
aa(lp415
F-3.12591291331611e-13
aF-3.7460091891103785e-08
aF0.9999999999999993
aa(lp416
F-3.12591291331611e-13
aF-3.7460091891103785e-08
aF0.9999999999999993
aa(lp417
F-0.4539897323218329
aF-3.823790491608512e-05
aF0.8910069143863101
aa(lp418
F-0.4539897323218329
aF-3.823790491608512e-05
aF0.8910069143863101
aa(lp419
F-0.4539897323218329
aF-3.823790491608512e-05
aF0.8910069143863101
aa(lp420
F-0.4539897323218329
aF-3.823790491608512e-05
aF0.8910069143863101
aassg76
(dp421
g4
g10
sg20
(lp422
(lp423
F0.7731998543114522
aF-0.7914539358688143
aF0.3100062324472055
aa(lp424
F0.8001416063959199
aF-0.8877562824089705
aF0.30999947193981153
aa(lp425
F0.626797382285402
aF-0.9362514356119587
aF0.3099903028288903
aa(lp426
F0.5998556302009344
aF-0.8399490890718023
aF0.30999706333628424
aa(lp427
F0.7966491058928489
aF-0.6078349265960351
aF0.301686845916937
aa(lp428
F0.8215964181204882
aF-0.7046730988118656
aF0.3016906718019755
aa(lp429
F0.6472877085841329
aF-0.749578261219253
aF0.30167765884759035
aa(lp430
F0.6223403963564935
aF-0.6527400890034225
aF0.3016738329625518
aa(lp431
F0.9788850300367794
aF-1.1865561694662132
aF1.1227799735736623
aa(lp432
F0.9473041801946676
aF-1.1549838705284163
aF1.1051777047884006
aa(lp433
F0.9185943921811105
aF-1.191093897667093
aF1.0919182171258142
aa(lp434
F0.9501752420232223
aF-1.22266619660489
aF1.1095204859110759
aasg34
g5
(g6
(I0
tp435
g8
tp436
Rp437
(I1
(I3
tp438
g15
I00
S'(p\x03\xa1\x1a\x7f\xe6?V\x10\xf6\xdd\xef\x12\xe8\xbf\xa3\xb4\xbf\xdb\x05\xfe\xf0?'
p439
tp440
bsg41
g10
sg42
(lp441
(lp442
F-3.12591291331611e-13
aF-3.7460091891103785e-08
aF0.9999999999999993
aa(lp443
F-3.12591291331611e-13
aF-3.7460091891103785e-08
aF0.9999999999999993
aa(lp444
F-3.12591291331611e-13
aF-3.7460091891103785e-08
aF0.9999999999999993
aa(lp445
F-3.12591291331611e-13
aF-3.7460091891103785e-08
aF0.9999999999999993
aa(lp446
F-3.12591291331611e-13
aF-3.7460091891103785e-08
aF0.9999999999999993
aa(lp447
F-3.12591291331611e-13
aF-3.7460091891103785e-08
aF0.9999999999999993
aa(lp448
F-3.12591291331611e-13
aF-3.7460091891103785e-08
aF0.9999999999999993
aa(lp449
F-3.12591291331611e-13
aF-3.7460091891103785e-08
aF0.9999999999999993
aa(lp450
F-0.4539897323218329
aF-3.823790491608512e-05
aF0.8910069143863101
aa(lp451
F-0.4539897323218329
aF-3.823790491608512e-05
aF0.8910069143863101
aa(lp452
F-0.4539897323218329
aF-3.823790491608512e-05
aF0.8910069143863101
aa(lp453
F-0.4539897323218329
aF-3.823790491608512e-05
aF0.8910069143863101
aassa(dp454
g2
(dp455
g4
g10
sg20
(lp456
(lp457
F0.7731998543114522
aF-0.7914539358688143
aF0.3100062324472055
aa(lp458
F0.8001416063959199
aF-0.8877562824089705
aF0.30999947193981153
aa(lp459
F0.626797382285402
aF-0.9362514356119587
aF0.3099903028288903
aa(lp460
F0.5998556302009344
aF-0.8399490890718023
aF0.30999706333628424
aa(lp461
F1.1039742637954673
aF-0.6796826977959024
aF0.47579917121887016
aa(lp462
F1.0690011383760667
aF-0.7733677045604013
aF0.4757965847831301
aa(lp463
F0.9003681261696115
aF-0.7104160787424737
aF0.4757947130719249
aa(lp464
F0.9353412515890122
aF-0.6167310719779748
aF0.4757972995076649
aa(lp465
F1.2161192078953507
aF-1.2174744988607018
aF1.2361793066802833
aa(lp466
F1.2140384692703456
aF-1.1695743157427774
aF1.2338895487829749
aa(lp467
F1.1720952064548253
aF-1.1725031941484694
aF1.2107338934019105
aa(lp468
F1.1741759450798304
aF-1.2204033772663938
aF1.2130236512992187
aasg34
g5
(g6
(I0
tp469
g8
tp470
Rp471
(I1
(I3
tp472
g15
I00
S'\xe2,\xff\x0f\xb6\xac\xec?\xfd"\xfd\x08\xec\xa1\xe7\xbf\xfc\x8a\x84\xb8\xceL\xf2?'
p473
tp474
bsg41
g10
sg42
(lp475
(lp476
F-3.12591291331611e-13
aF-3.7460091891103785e-08
aF0.9999999999999993
aa(lp477
F-3.12591291331611e-13
aF-3.7460091891103785e-08
aF0.9999999999999993
aa(lp478
F-3.12591291331611e-13
aF-3.7460091891103785e-08
aF0.9999999999999993
aa(lp479
F-3.12591291331611e-13
aF-3.7460091891103785e-08
aF0.9999999999999993
aa(lp480
F-3.12591291331611e-13
aF-3.7460091891103785e-08
aF0.9999999999999993
aa(lp481
F-3.12591291331611e-13
aF-3.7460091891103785e-08
aF0.9999999999999993
aa(lp482
F-3.12591291331611e-13
aF-3.7460091891103785e-08
aF0.9999999999999993
aa(lp483
F-3.12591291331611e-13
aF-3.7460091891103785e-08
aF0.9999999999999993
aa(lp484
F-0.4539901642583891
aF-7.360270835217737e-05
aF0.8910066920844547
aa(lp485
F-0.4539901642583891
aF-7.360270835217737e-05
aF0.8910066920844547
aa(lp486
F-0.4539901642583891
aF-7.360270835217737e-05
aF0.8910066920844547
aa(lp487
F-0.4539901642583891
aF-7.360270835217737e-05
aF0.8910066920844547
aassg56
(dp488
g20
(lp489
(lp490
F0.7731998543114522
aF-0.7914539358688143
aF0.3100062324472055
aa(lp491
F0.8001416063959199
aF-0.8877562824089705
aF0.30999947193981153
aa(lp492
F0.626797382285402
aF-0.9362514356119587
aF0.3099903028288903
aa(lp493
F0.5998556302009344
aF-0.8399490890718023
aF0.30999706333628424
aa(lp494
F1.1039742637954673
aF-0.6796826977959024
aF0.47579917121887016
aa(lp495
F1.0690011383760667
aF-0.7733677045604013
aF0.4757965847831301
aa(lp496
F0.9003681261696115
aF-0.7104160787424737
aF0.4757947130719249
aa(lp497
F0.9353412515890122
aF-0.6167310719779748
aF0.4757972995076649
aasg42
(lp498
(lp499
F-3.12591291331611e-13
aF-3.7460091891103785e-08
aF0.9999999999999993
aa(lp500
F-3.12591291331611e-13
aF-3.7460091891103785e-08
aF0.9999999999999993
aa(lp501
F-3.12591291331611e-13
aF-3.7460091891103785e-08
aF0.9999999999999993
aa(lp502
F-3.12591291331611e-13
aF-3.7460091891103785e-08
aF0.9999999999999993
aa(lp503
F-3.12591291331611e-13
aF-3.7460091891103785e-08
aF0.9999999999999993
aa(lp504
F-3.12591291331611e-13
aF-3.7460091891103785e-08
aF0.9999999999999993
aa(lp505
F-3.12591291331611e-13
aF-3.7460091891103785e-08
aF0.9999999999999993
aa(lp506
F-3.12591291331611e-13
aF-3.7460091891103785e-08
aF0.9999999999999993
aassg76
(dp507
g4
g10
sg20
(lp508
(lp509
F0.7731998543114522
aF-0.7914539358688143
aF0.3100062324472055
aa(lp510
F0.8001416063959199
aF-0.8877562824089705
aF0.30999947193981153
aa(lp511
F0.626797382285402
aF-0.9362514356119587
aF0.3099903028288903
aa(lp512
F0.5998556302009344
aF-0.8399490890718023
aF0.30999706333628424
aa(lp513
F1.1039742637954673
aF-0.6796826977959024
aF0.47579917121887016
aa(lp514
F1.0690011383760667
aF-0.7733677045604013
aF0.4757965847831301
aa(lp515
F0.9003681261696115
aF-0.7104160787424737
aF0.4757947130719249
aa(lp516
F0.9353412515890122
aF-0.6167310719779748
aF0.4757972995076649
aa(lp517
F0.9788850300367794
aF-1.1865561694662132
aF1.1227799735736623
aa(lp518
F0.9473041801946676
aF-1.1549838705284163
aF1.1051777047884006
aa(lp519
F0.9185943921811105
aF-1.191093897667093
aF1.0919182171258142
aa(lp520
F0.9501752420232223
aF-1.22266619660489
aF1.1095204859110759
aasg34
g5
(g6
(I0
tp521
g8
tp522
Rp523
(I1
(I3
tp524
g15
I00
S'\x89Z\xf7cq\xa0\xe9?\x03\xb52\x99\xb8\x02\xe8\xbfJ\xc9:\xb9\t\xc9\xf1?'
p525
tp526
bsg41
g10
sg42
(lp527
(lp528
F-3.12591291331611e-13
aF-3.7460091891103785e-08
aF0.9999999999999993
aa(lp529
F-3.12591291331611e-13
aF-3.7460091891103785e-08
aF0.9999999999999993
aa(lp530
F-3.12591291331611e-13
aF-3.7460091891103785e-08
aF0.9999999999999993
aa(lp531
F-3.12591291331611e-13
aF-3.7460091891103785e-08
aF0.9999999999999993
aa(lp532
F-3.12591291331611e-13
aF-3.7460091891103785e-08
aF0.9999999999999993
aa(lp533
F-3.12591291331611e-13
aF-3.7460091891103785e-08
aF0.9999999999999993
aa(lp534
F-3.12591291331611e-13
aF-3.7460091891103785e-08
aF0.9999999999999993
aa(lp535
F-3.12591291331611e-13
aF-3.7460091891103785e-08
aF0.9999999999999993
aa(lp536
F-0.4539897323218329
aF-3.823790491608512e-05
aF0.8910069143863101
aa(lp537
F-0.4539897323218329
aF-3.823790491608512e-05
aF0.8910069143863101
aa(lp538
F-0.4539897323218329
aF-3.823790491608512e-05
aF0.8910069143863101
aa(lp539
F-0.4539897323218329
aF-3.823790491608512e-05
aF0.8910069143863101
aassa(dp540
g2
(dp541
g4
g10
sg20
(lp542
(lp543
F1.114055956055538
aF-1.098008590756037
aF0.453721064923607
aa(lp544
F1.0853568752380092
aF-1.1938019243435773
aF0.45372210017453013
aa(lp545
F0.9129288750209514
aF-1.1421435790549899
aF0.4537118376845268
aa(lp546
F0.9416279558384805
aF-1.0463502454674496
aF0.45371080243360357
aa(lp547
F1.1039742637954673
aF-0.6796826977959024
aF0.47579917121887016
aa(lp548
F1.0690011383760667
aF-0.7733677045604013
aF0.4757965847831301
aa(lp549
F0.9003681261696115
aF-0.7104160787424737
aF0.4757947130719249
aa(lp550
F0.9353412515890122
aF-0.6167310719779748
aF0.4757972995076649
aa(lp551
F1.2161192078953507
aF-1.2174744988607018
aF1.2361793066802833
aa(lp552
F1.2140384692703456
aF-1.1695743157427774
aF1.2338895487829749
aa(lp553
F1.1720952064548253
aF-1.1725031941484694
aF1.2107338934019105
aa(lp554
F1.1741759450798304
aF-1.2204033772663938
aF1.2130236512992187
aasg34
g5
(g6
(I0
tp555
g8
tp556
Rp557
(I1
(I3
tp558
g15
I00
S'\xfc\r\xa3\x0e&[\xed?_F\xf0\r\xa4A\xe8\xbf^\xf5\\\t\xb2\x8c\xf2?'
p559
tp560
bsg41
g10
sg42
(lp561
(lp562
F0.0
aF-3.7460111536732874e-08
aF0.9999999999999993
aa(lp563
F0.0
aF-3.7460111536732874e-08
aF0.9999999999999993
aa(lp564
F0.0
aF-3.7460111536732874e-08
aF0.9999999999999993
aa(lp565
F0.0
aF-3.7460111536732874e-08
aF0.9999999999999993
aa(lp566
F-3.12591291331611e-13
aF-3.7460091891103785e-08
aF0.9999999999999993
aa(lp567
F-3.12591291331611e-13
aF-3.7460091891103785e-08
aF0.9999999999999993
aa(lp568
F-3.12591291331611e-13
aF-3.7460091891103785e-08
aF0.9999999999999993
aa(lp569
F-3.12591291331611e-13
aF-3.7460091891103785e-08
aF0.9999999999999993
aa(lp570
F-0.4539901642583891
aF-7.360270835217737e-05
aF0.8910066920844547
aa(lp571
F-0.4539901642583891
aF-7.360270835217737e-05
aF0.8910066920844547
aa(lp572
F-0.4539901642583891
aF-7.360270835217737e-05
aF0.8910066920844547
aa(lp573
F-0.4539901642583891
aF-7.360270835217737e-05
aF0.8910066920844547
aassg56
(dp574
g20
(lp575
(lp576
F1.1039742637954673
aF-0.6796826977959024
aF0.47579917121887016
aa(lp577
F1.0690011383760667
aF-0.7733677045604013
aF0.4757965847831301
aa(lp578
F0.9003681261696115
aF-0.7104160787424737
aF0.4757947130719249
aa(lp579
F0.9353412515890122
aF-0.6167310719779748
aF0.4757972995076649
aa(lp580
F1.2161192078953507
aF-1.2174744988607018
aF1.2361793066802833
aa(lp581
F1.2140384692703456
aF-1.1695743157427774
aF1.2338895487829749
aa(lp582
F1.1720952064548253
aF-1.1725031941484694
aF1.2107338934019105
aa(lp583
F1.1741759450798304
aF-1.2204033772663938
aF1.2130236512992187
aasg42
(lp584
(lp585
F-3.12591291331611e-13
aF-3.7460091891103785e-08
aF0.9999999999999993
aa(lp586
F-3.12591291331611e-13
aF-3.7460091891103785e-08
aF0.9999999999999993
aa(lp587
F-3.12591291331611e-13
aF-3.7460091891103785e-08
aF0.9999999999999993
aa(lp588
F-3.12591291331611e-13
aF-3.7460091891103785e-08
aF0.9999999999999993
aa(lp589
F-0.4539901642583891
aF-7.360270835217737e-05
aF0.8910066920844547
aa(lp590
F-0.4539901642583891
aF-7.360270835217737e-05
aF0.8910066920844547
aa(lp591
F-0.4539901642583891
aF-7.360270835217737e-05
aF0.8910066920844547
aa(lp592
F-0.4539901642583891
aF-7.360270835217737e-05
aF0.8910066920844547
aassg76
(dp593
g4
g10
sg20
(lp594
(lp595
F0.7731998543114522
aF-0.7914539358688143
aF0.3100062324472055
aa(lp596
F0.8001416063959199
aF-0.8877562824089705
aF0.30999947193981153
aa(lp597
F0.626797382285402
aF-0.9362514356119587
aF0.3099903028288903
aa(lp598
F0.5998556302009344
aF-0.8399490890718023
aF0.30999706333628424
aa(lp599
F1.1039742637954673
aF-0.6796826977959024
aF0.47579917121887016
aa(lp600
F1.0690011383760667
aF-0.7733677045604013
aF0.4757965847831301
aa(lp601
F0.9003681261696115
aF-0.7104160787424737
aF0.4757947130719249
aa(lp602
F0.9353412515890122
aF-0.6167310719779748
aF0.4757972995076649
aa(lp603
F1.2161192078953507
aF-1.2174744988607018
aF1.2361793066802833
aa(lp604
F1.2140384692703456
aF-1.1695743157427774
aF1.2338895487829749
aa(lp605
F1.1720952064548253
aF-1.1725031941484694
aF1.2107338934019105
aa(lp606
F1.1741759450798304
aF-1.2204033772663938
aF1.2130236512992187
aasg34
g5
(g6
(I0
tp607
g8
tp608
Rp609
(I1
(I3
tp610
g15
I00
S'\xe2,\xff\x0f\xb6\xac\xec?\xfd"\xfd\x08\xec\xa1\xe7\xbf\xfc\x8a\x84\xb8\xceL\xf2?'
p611
tp612
bsg41
g10
sg42
(lp613
(lp614
F-3.12591291331611e-13
aF-3.7460091891103785e-08
aF0.9999999999999993
aa(lp615
F-3.12591291331611e-13
aF-3.7460091891103785e-08
aF0.9999999999999993
aa(lp616
F-3.12591291331611e-13
aF-3.7460091891103785e-08
aF0.9999999999999993
aa(lp617
F-3.12591291331611e-13
aF-3.7460091891103785e-08
aF0.9999999999999993
aa(lp618
F-3.12591291331611e-13
aF-3.7460091891103785e-08
aF0.9999999999999993
aa(lp619
F-3.12591291331611e-13
aF-3.7460091891103785e-08
aF0.9999999999999993
aa(lp620
F-3.12591291331611e-13
aF-3.7460091891103785e-08
aF0.9999999999999993
aa(lp621
F-3.12591291331611e-13
aF-3.7460091891103785e-08
aF0.9999999999999993
aa(lp622
F-0.4539901642583891
aF-7.360270835217737e-05
aF0.8910066920844547
aa(lp623
F-0.4539901642583891
aF-7.360270835217737e-05
aF0.8910066920844547
aa(lp624
F-0.4539901642583891
aF-7.360270835217737e-05
aF0.8910066920844547
aa(lp625
F-0.4539901642583891
aF-7.360270835217737e-05
aF0.8910066920844547
aassa(dp626
g2
(dp627
g4
g10
sg20
(lp628
(lp629
F1.114055956055538
aF-1.098008590756037
aF0.453721064923607
aa(lp630
F1.0853568752380092
aF-1.1938019243435773
aF0.45372210017453013
aa(lp631
F0.9129288750209514
aF-1.1421435790549899
aF0.4537118376845268
aa(lp632
F0.9416279558384805
aF-1.0463502454674496
aF0.45371080243360357
aa(lp633
F1.1039742637954673
aF-0.6796826977959024
aF0.47579917121887016
aa(lp634
F1.0690011383760667
aF-0.7733677045604013
aF0.4757965847831301
aa(lp635
F0.9003681261696115
aF-0.7104160787424737
aF0.4757947130719249
aa(lp636
F0.9353412515890122
aF-0.6167310719779748
aF0.4757972995076649
aa(lp637
F0.9693565445391483
aF-1.1449403892734713
aF1.1090813335383614
aa(lp638
F0.9258332867051074
aF-1.1545209861925048
aF1.0912505120979104
aa(lp639
F0.9331692454197383
aF-1.2013952173680187
aF1.098529946543068
aa(lp640
F0.9766925032537791
aF-1.1918146204489852
aF1.116360767983519
aasg34
g5
(g6
(I0
tp641
g8
tp642
Rp643
(I1
(I3
tp644
g15
I00
S'\x1c\xab\xfc\x98\x17e\xef?\xad\xaag\xcd\x96*\xe8\xbfC\xe1\xc8\x16\xe7\x07\xf3?'
p645
tp646
bsg41
g10
sg42
(lp647
(lp648
F0.0
aF-3.7460111536732874e-08
aF0.9999999999999993
aa(lp649
F0.0
aF-3.7460111536732874e-08
aF0.9999999999999993
aa(lp650
F0.0
aF-3.7460111536732874e-08
aF0.9999999999999993
aa(lp651
F0.0
aF-3.7460111536732874e-08
aF0.9999999999999993
aa(lp652
F-3.12591291331611e-13
aF-3.7460091891103785e-08
aF0.9999999999999993
aa(lp653
F-3.12591291331611e-13
aF-3.7460091891103785e-08
aF0.9999999999999993
aa(lp654
F-3.12591291331611e-13
aF-3.7460091891103785e-08
aF0.9999999999999993
aa(lp655
F-3.12591291331611e-13
aF-3.7460091891103785e-08
aF0.9999999999999993
aa(lp656
F-0.4539897323218329
aF-3.823790491608512e-05
aF0.8910069143863101
aa(lp657
F-0.4539897323218329
aF-3.823790491608512e-05
aF0.8910069143863101
aa(lp658
F-0.4539897323218329
aF-3.823790491608512e-05
aF0.8910069143863101
aa(lp659
F-0.4539897323218329
aF-3.823790491608512e-05
aF0.8910069143863101
aassg56
(dp660
g20
(lp661
(lp662
F1.114055956055538
aF-1.098008590756037
aF0.453721064923607
aa(lp663
F1.0853568752380092
aF-1.1938019243435773
aF0.45372210017453013
aa(lp664
F0.9129288750209514
aF-1.1421435790549899
aF0.4537118376845268
aa(lp665
F0.9416279558384805
aF-1.0463502454674496
aF0.45371080243360357
aa(lp666
F1.1039742637954673
aF-0.6796826977959024
aF0.47579917121887016
aa(lp667
F1.0690011383760667
aF-0.7733677045604013
aF0.4757965847831301
aa(lp668
F0.9003681261696115
aF-0.7104160787424737
aF0.4757947130719249
aa(lp669
F0.9353412515890122
aF-0.6167310719779748
aF0.4757972995076649
aasg42
(lp670
(lp671
F0.0
aF-3.7460111536732874e-08
aF0.9999999999999993
aa(lp672
F0.0
aF-3.7460111536732874e-08
aF0.9999999999999993
aa(lp673
F0.0
aF-3.7460111536732874e-08
aF0.9999999999999993
aa(lp674
F0.0
aF-3.7460111536732874e-08
aF0.9999999999999993
aa(lp675
F-3.12591291331611e-13
aF-3.7460091891103785e-08
aF0.9999999999999993
aa(lp676
F-3.12591291331611e-13
aF-3.7460091891103785e-08
aF0.9999999999999993
aa(lp677
F-3.12591291331611e-13
aF-3.7460091891103785e-08
aF0.9999999999999993
aa(lp678
F-3.12591291331611e-13
aF-3.7460091891103785e-08
aF0.9999999999999993
aassg76
(dp679
g4
g10
sg20
(lp680
(lp681
F1.114055956055538
aF-1.098008590756037
aF0.453721064923607
aa(lp682
F1.0853568752380092
aF-1.1938019243435773
aF0.45372210017453013
aa(lp683
F0.9129288750209514
aF-1.1421435790549899
aF0.4537118376845268
aa(lp684
F0.9416279558384805
aF-1.0463502454674496
aF0.45371080243360357
aa(lp685
F1.1039742637954673
aF-0.6796826977959024
aF0.47579917121887016
aa(lp686
F1.0690011383760667
aF-0.7733677045604013
aF0.4757965847831301
aa(lp687
F0.9003681261696115
aF-0.7104160787424737
aF0.4757947130719249
aa(lp688
F0.9353412515890122
aF-0.6167310719779748
aF0.4757972995076649
aa(lp689
F1.2161192078953507
aF-1.2174744988607018
aF1.2361793066802833
aa(lp690
F1.2140384692703456
aF-1.1695743157427774
aF1.2338895487829749
aa(lp691
F1.1720952064548253
aF-1.1725031941484694
aF1.2107338934019105
aa(lp692
F1.1741759450798304
aF-1.2204033772663938
aF1.2130236512992187
aasg34
g5
(g6
(I0
tp693
g8
tp694
Rp695
(I1
(I3
tp696
g15
I00
S'\xfc\r\xa3\x0e&[\xed?_F\xf0\r\xa4A\xe8\xbf^\xf5\\\t\xb2\x8c\xf2?'
p697
tp698
bsg41
g10
sg42
(lp699
(lp700
F0.0
aF-3.7460111536732874e-08
aF0.9999999999999993
aa(lp701
F0.0
aF-3.7460111536732874e-08
aF0.9999999999999993
aa(lp702
F0.0
aF-3.7460111536732874e-08
aF0.9999999999999993
aa(lp703
F0.0
aF-3.7460111536732874e-08
aF0.9999999999999993
aa(lp704
F-3.12591291331611e-13
aF-3.7460091891103785e-08
aF0.9999999999999993
aa(lp705
F-3.12591291331611e-13
aF-3.7460091891103785e-08
aF0.9999999999999993
aa(lp706
F-3.12591291331611e-13
aF-3.7460091891103785e-08
aF0.9999999999999993
aa(lp707
F-3.12591291331611e-13
aF-3.7460091891103785e-08
aF0.9999999999999993
aa(lp708
F-0.4539901642583891
aF-7.360270835217737e-05
aF0.8910066920844547
aa(lp709
F-0.4539901642583891
aF-7.360270835217737e-05
aF0.8910066920844547
aa(lp710
F-0.4539901642583891
aF-7.360270835217737e-05
aF0.8910066920844547
aa(lp711
F-0.4539901642583891
aF-7.360270835217737e-05
aF0.8910066920844547
aassa(dp712
g2
(dp713
g4
g10
sg20
(lp714
(lp715
F1.114055956055538
aF-1.098008590756037
aF0.453721064923607
aa(lp716
F1.0853568752380092
aF-1.1938019243435773
aF0.45372210017453013
aa(lp717
F0.9129288750209514
aF-1.1421435790549899
aF0.4537118376845268
aa(lp718
F0.9416279558384805
aF-1.0463502454674496
aF0.45371080243360357
aa(lp719
F1.3845942803889406
aF-0.3443740759702457
aF0.6075802018340147
aa(lp720
F1.4126580928540509
aF-0.44035544098709456
aF0.6075802694361164
aa(lp721
F1.2398916358457919
aF-0.4908703034198434
aF0.6075774251724306
aa(lp722
F1.2118278233806816
aF-0.39488893840299455
aF0.6075773575703288
aa(lp723
F0.9693565445391483
aF-1.1449403892734713
aF1.1090813335383614
aa(lp724
F0.9258332867051074
aF-1.1545209861925048
aF1.0912505120979104
aa(lp725
F0.9331692454197383
aF-1.2013952173680187
aF1.098529946543068
aa(lp726
F0.9766925032537791
aF-1.1918146204489852
aF1.116360767983519
aasg34
g5
(g6
(I0
tp727
g8
tp728
Rp729
(I1
(I3
tp730
g15
I00
S"\x80`\x0e\xb0\xe0=\xf1?\xd8\xe5\x8b'P!\xe7\xbf\xc8\x06\x18\x08'\xb7\xf3?"
p731
tp732
bsg41
g10
sg42
(lp733
(lp734
F0.0
aF-3.7460111536732874e-08
aF0.9999999999999993
aa(lp735
F0.0
aF-3.7460111536732874e-08
aF0.9999999999999993
aa(lp736
F0.0
aF-3.7460111536732874e-08
aF0.9999999999999993
aa(lp737
F0.0
aF-3.7460111536732874e-08
aF0.9999999999999993
aa(lp738
F-6.251833279396465e-13
aF-7.492018378220741e-08
aF0.9999999999999972
aa(lp739
F-6.251833279396465e-13
aF-7.492018378220741e-08
aF0.9999999999999972
aa(lp740
F-6.251833279396465e-13
aF-7.492018378220741e-08
aF0.9999999999999972
aa(lp741
F-6.251833279396465e-13
aF-7.492018378220741e-08
aF0.9999999999999972
aa(lp742
F-0.4539897323218329
aF-3.823790491608512e-05
aF0.8910069143863101
aa(lp743
F-0.4539897323218329
aF-3.823790491608512e-05
aF0.8910069143863101
aa(lp744
F-0.4539897323218329
aF-3.823790491608512e-05
aF0.8910069143863101
aa(lp745
F-0.4539897323218329
aF-3.823790491608512e-05
aF0.8910069143863101
aassg56
(dp746
g20
(lp747
(lp748
F1.114055956055538
aF-1.098008590756037
aF0.453721064923607
aa(lp749
F1.0853568752380092
aF-1.1938019243435773
aF0.45372210017453013
aa(lp750
F0.9129288750209514
aF-1.1421435790549899
aF0.4537118376845268
aa(lp751
F0.9416279558384805
aF-1.0463502454674496
aF0.45371080243360357
aa(lp752
F0.9693565445391483
aF-1.1449403892734713
aF1.1090813335383614
aa(lp753
F0.9258332867051074
aF-1.1545209861925048
aF1.0912505120979104
aa(lp754
F0.9331692454197383
aF-1.2013952173680187
aF1.098529946543068
aa(lp755
F0.9766925032537791
aF-1.1918146204489852
aF1.116360767983519
aasg42
(lp756
(lp757
F0.0
aF-3.7460111536732874e-08
aF0.9999999999999993
aa(lp758
F0.0
aF-3.7460111536732874e-08
aF0.9999999999999993
aa(lp759
F0.0
aF-3.7460111536732874e-08
aF0.9999999999999993
aa(lp760
F0.0
aF-3.7460111536732874e-08
aF0.9999999999999993
aa(lp761
F-0.4539897323218329
aF-3.823790491608512e-05
aF0.8910069143863101
aa(lp762
F-0.4539897323218329
aF-3.823790491608512e-05
aF0.8910069143863101
aa(lp763
F-0.4539897323218329
aF-3.823790491608512e-05
aF0.8910069143863101
aa(lp764
F-0.4539897323218329
aF-3.823790491608512e-05
aF0.8910069143863101
aassg76
(dp765
g4
g10
sg20
(lp766
(lp767
F1.114055956055538
aF-1.098008590756037
aF0.453721064923607
aa(lp768
F1.0853568752380092
aF-1.1938019243435773
aF0.45372210017453013
aa(lp769
F0.9129288750209514
aF-1.1421435790549899
aF0.4537118376845268
aa(lp770
F0.9416279558384805
aF-1.0463502454674496
aF0.45371080243360357
aa(lp771
F1.1039742637954673
aF-0.6796826977959024
aF0.47579917121887016
aa(lp772
F1.0690011383760667
aF-0.7733677045604013
aF0.4757965847831301
aa(lp773
F0.9003681261696115
aF-0.7104160787424737
aF0.4757947130719249
aa(lp774
F0.9353412515890122
aF-0.6167310719779748
aF0.4757972995076649
aa(lp775
F0.9693565445391483
aF-1.1449403892734713
aF1.1090813335383614
aa(lp776
F0.9258332867051074
aF-1.1545209861925048
aF1.0912505120979104
aa(lp777
F0.9331692454197383
aF-1.2013952173680187
aF1.098529946543068
aa(lp778
F0.9766925032537791
aF-1.1918146204489852
aF1.116360767983519
aasg34
g5
(g6
(I0
tp779
g8
tp780
Rp781
(I1
(I3
tp782
g15
I00
S'\x1c\xab\xfc\x98\x17e\xef?\xad\xaag\xcd\x96*\xe8\xbfC\xe1\xc8\x16\xe7\x07\xf3?'
p783
tp784
bsg41
g10
sg42
(lp785
(lp786
F0.0
aF-3.7460111536732874e-08
aF0.9999999999999993
aa(lp787
F0.0
aF-3.7460111536732874e-08
aF0.9999999999999993
aa(lp788
F0.0
aF-3.7460111536732874e-08
aF0.9999999999999993
aa(lp789
F0.0
aF-3.7460111536732874e-08
aF0.9999999999999993
aa(lp790
F-3.12591291331611e-13
aF-3.7460091891103785e-08
aF0.9999999999999993
aa(lp791
F-3.12591291331611e-13
aF-3.7460091891103785e-08
aF0.9999999999999993
aa(lp792
F-3.12591291331611e-13
aF-3.7460091891103785e-08
aF0.9999999999999993
aa(lp793
F-3.12591291331611e-13
aF-3.7460091891103785e-08
aF0.9999999999999993
aa(lp794
F-0.4539897323218329
aF-3.823790491608512e-05
aF0.8910069143863101
aa(lp795
F-0.4539897323218329
aF-3.823790491608512e-05
aF0.8910069143863101
aa(lp796
F-0.4539897323218329
aF-3.823790491608512e-05
aF0.8910069143863101
aa(lp797
F-0.4539897323218329
aF-3.823790491608512e-05
aF0.8910069143863101
aassa(dp798
g2
(dp799
g4
g10
sg20
(lp800
(lp801
F1.114055956055538
aF-1.098008590756037
aF0.453721064923607
aa(lp802
F1.0853568752380092
aF-1.1938019243435773
aF0.45372210017453013
aa(lp803
F0.9129288750209514
aF-1.1421435790549899
aF0.4537118376845268
aa(lp804
F0.9416279558384805
aF-1.0463502454674496
aF0.45371080243360357
aa(lp805
F1.3845942803889406
aF-0.3443740759702457
aF0.6075802018340147
aa(lp806
F1.4126580928540509
aF-0.44035544098709456
aF0.6075802694361164
aa(lp807
F1.2398916358457919
aF-0.4908703034198434
aF0.6075774251724306
aa(lp808
F1.2118278233806816
aF-0.39488893840299455
aF0.6075773575703288
aa(lp809
F1.6036885346034029
aF-1.2190370532895576
aF1.43900631945894
aa(lp810
F1.576889207971253
aF-1.180030312252274
aF1.4309894465192632
aa(lp811
F1.543239018463362
aF-1.2073798272341758
aF1.410406230606045
aa(lp812
F1.5700383450955118
aF-1.2463865682714594
aF1.418423103545722
aasg34
g5
(g6
(I0
tp813
g8
tp814
Rp815
(I1
(I3
tp816
g15
I00
S'l\xe3\xd5_y\xa9\xf1?\x9cd~OH\x12\xe7\xbf\xcc\x7f%\xa83\xda\xf3?'
p817
tp818
bsg41
g10
sg42
(lp819
(lp820
F0.0
aF-3.7460111536732874e-08
aF0.9999999999999993
aa(lp821
F0.0
aF-3.7460111536732874e-08
aF0.9999999999999993
aa(lp822
F0.0
aF-3.7460111536732874e-08
aF0.9999999999999993
aa(lp823
F0.0
aF-3.7460111536732874e-08
aF0.9999999999999993
aa(lp824
F-6.251833279396465e-13
aF-7.492018378220741e-08
aF0.9999999999999972
aa(lp825
F-6.251833279396465e-13
aF-7.492018378220741e-08
aF0.9999999999999972
aa(lp826
F-6.251833279396465e-13
aF-7.492018378220741e-08
aF0.9999999999999972
aa(lp827
F-6.251833279396465e-13
aF-7.492018378220741e-08
aF0.9999999999999972
aa(lp828
F-0.4539901642583891
aF-7.360270835217737e-05
aF0.8910066920844547
aa(lp829
F-0.4539901642583891
aF-7.360270835217737e-05
aF0.8910066920844547
aa(lp830
F-0.4539901642583891
aF-7.360270835217737e-05
aF0.8910066920844547
aa(lp831
F-0.4539901642583891
aF-7.360270835217737e-05
aF0.8910066920844547
aassg56
(dp832
g20
(lp833
(lp834
F1.114055956055538
aF-1.098008590756037
aF0.453721064923607
aa(lp835
F1.0853568752380092
aF-1.1938019243435773
aF0.45372210017453013
aa(lp836
F0.9129288750209514
aF-1.1421435790549899
aF0.4537118376845268
aa(lp837
F0.9416279558384805
aF-1.0463502454674496
aF0.45371080243360357
aa(lp838
F1.3845942803889406
aF-0.3443740759702457
aF0.6075802018340147
aa(lp839
F1.4126580928540509
aF-0.44035544098709456
aF0.6075802694361164
aa(lp840
F1.2398916358457919
aF-0.4908703034198434
aF0.6075774251724306
aa(lp841
F1.2118278233806816
aF-0.39488893840299455
aF0.6075773575703288
aasg42
(lp842
(lp843
F0.0
aF-3.7460111536732874e-08
aF0.9999999999999993
aa(lp844
F0.0
aF-3.7460111536732874e-08
aF0.9999999999999993
aa(lp845
F0.0
aF-3.7460111536732874e-08
aF0.9999999999999993
aa(lp846
F0.0
aF-3.7460111536732874e-08
aF0.9999999999999993
aa(lp847
F-6.251833279396465e-13
aF-7.492018378220741e-08
aF0.9999999999999972
aa(lp848
F-6.251833279396465e-13
aF-7.492018378220741e-08
aF0.9999999999999972
aa(lp849
F-6.251833279396465e-13
aF-7.492018378220741e-08
aF0.9999999999999972
aa(lp850
F-6.251833279396465e-13
aF-7.492018378220741e-08
aF0.9999999999999972
aassg76
(dp851
g4
g10
sg20
(lp852
(lp853
F1.114055956055538
aF-1.098008590756037
aF0.453721064923607
aa(lp854
F1.0853568752380092
aF-1.1938019243435773
aF0.45372210017453013
aa(lp855
F0.9129288750209514
aF-1.1421435790549899
aF0.4537118376845268
aa(lp856
F0.9416279558384805
aF-1.0463502454674496
aF0.45371080243360357
aa(lp857
F1.3845942803889406
aF-0.3443740759702457
aF0.6075802018340147
aa(lp858
F1.4126580928540509
aF-0.44035544098709456
aF0.6075802694361164
aa(lp859
F1.2398916358457919
aF-0.4908703034198434
aF0.6075774251724306
aa(lp860
F1.2118278233806816
aF-0.39488893840299455
aF0.6075773575703288
aa(lp861
F0.9693565445391483
aF-1.1449403892734713
aF1.1090813335383614
aa(lp862
F0.9258332867051074
aF-1.1545209861925048
aF1.0912505120979104
aa(lp863
F0.9331692454197383
aF-1.2013952173680187
aF1.098529946543068
aa(lp864
F0.9766925032537791
aF-1.1918146204489852
aF1.116360767983519
aasg34
g5
(g6
(I0
tp865
g8
tp866
Rp867
(I1
(I3
tp868
g15
I00
S"\x80`\x0e\xb0\xe0=\xf1?\xd8\xe5\x8b'P!\xe7\xbf\xc8\x06\x18\x08'\xb7\xf3?"
p869
tp870
bsg41
g10
sg42
(lp871
(lp872
F0.0
aF-3.7460111536732874e-08
aF0.9999999999999993
aa(lp873
F0.0
aF-3.7460111536732874e-08
aF0.9999999999999993
aa(lp874
F0.0
aF-3.7460111536732874e-08
aF0.9999999999999993
aa(lp875
F0.0
aF-3.7460111536732874e-08
aF0.9999999999999993
aa(lp876
F-6.251833279396465e-13
aF-7.492018378220741e-08
aF0.9999999999999972
aa(lp877
F-6.251833279396465e-13
aF-7.492018378220741e-08
aF0.9999999999999972
aa(lp878
F-6.251833279396465e-13
aF-7.492018378220741e-08
aF0.9999999999999972
aa(lp879
F-6.251833279396465e-13
aF-7.492018378220741e-08
aF0.9999999999999972
aa(lp880
F-0.4539897323218329
aF-3.823790491608512e-05
aF0.8910069143863101
aa(lp881
F-0.4539897323218329
aF-3.823790491608512e-05
aF0.8910069143863101
aa(lp882
F-0.4539897323218329
aF-3.823790491608512e-05
aF0.8910069143863101
aa(lp883
F-0.4539897323218329
aF-3.823790491608512e-05
aF0.8910069143863101
aassa(dp884
g2
(dp885
g4
g10
sg20
(lp886
(lp887
F1.114055956055538
aF-1.098008590756037
aF0.453721064923607
aa(lp888
F1.0853568752380092
aF-1.1938019243435773
aF0.45372210017453013
aa(lp889
F0.9129288750209514
aF-1.1421435790549899
aF0.4537118376845268
aa(lp890
F0.9416279558384805
aF-1.0463502454674496
aF0.45371080243360357
aa(lp891
F1.398537910772828
aF-0.4939463289972744
aF0.6222133624821897
aa(lp892
F1.386146835935608
aF-0.5931756656767294
aF0.6222107847265839
aa(lp893
F1.2075340301555482
aF-0.5708717312875927
aF0.6222218526767406
aa(lp894
F1.2199251049927684
aF-0.4716423946081378
aF0.6222244304323464
aa(lp895
F1.6036885346034029
aF-1.2190370532895576
aF1.43900631945894
aa(lp896
F1.576889207971253
aF-1.180030312252274
aF1.4309894465192632
aa(lp897
F1.543239018463362
aF-1.2073798272341758
aF1.410406230606045
aa(lp898
F1.5700383450955118
aF-1.2463865682714594
aF1.418423103545722
aasg34
g5
(g6
(I0
tp899
g8
tp900
Rp901
(I1
(I3
tp902
g15
I00
S">\xef\r\xe5s\xb1\xf1?\xe6\xa5%\xd7\x06j\xe7\xbf\xe4'\xac\x13\n\xe0\xf3?"
p903
tp904
bsg41
g10
sg42
(lp905
(lp906
F0.0
aF-3.7460111536732874e-08
aF0.9999999999999993
aa(lp907
F0.0
aF-3.7460111536732874e-08
aF0.9999999999999993
aa(lp908
F0.0
aF-3.7460111536732874e-08
aF0.9999999999999993
aa(lp909
F0.0
aF-3.7460111536732874e-08
aF0.9999999999999993
aa(lp910
F-6.251833279396465e-13
aF-7.492018378220741e-08
aF0.9999999999999972
aa(lp911
F-6.251833279396465e-13
aF-7.492018378220741e-08
aF0.9999999999999972
aa(lp912
F-6.251833279396465e-13
aF-7.492018378220741e-08
aF0.9999999999999972
aa(lp913
F-6.251833279396465e-13
aF-7.492018378220741e-08
aF0.9999999999999972
aa(lp914
F-0.4539901642583891
aF-7.360270835217737e-05
aF0.8910066920844547
aa(lp915
F-0.4539901642583891
aF-7.360270835217737e-05
aF0.8910066920844547
aa(lp916
F-0.4539901642583891
aF-7.360270835217737e-05
aF0.8910066920844547
aa(lp917
F-0.4539901642583891
aF-7.360270835217737e-05
aF0.8910066920844547
aassg56
(dp918
g20
(lp919
(lp920
F1.114055956055538
aF-1.098008590756037
aF0.453721064923607
aa(lp921
F1.0853568752380092
aF-1.1938019243435773
aF0.45372210017453013
aa(lp922
F0.9129288750209514
aF-1.1421435790549899
aF0.4537118376845268
aa(lp923
F0.9416279558384805
aF-1.0463502454674496
aF0.45371080243360357
aa(lp924
F1.6036885346034029
aF-1.2190370532895576
aF1.43900631945894
aa(lp925
F1.576889207971253
aF-1.180030312252274
aF1.4309894465192632
aa(lp926
F1.543239018463362
aF-1.2073798272341758
aF1.410406230606045
aa(lp927
F1.5700383450955118
aF-1.2463865682714594
aF1.418423103545722
aasg42
(lp928
(lp929
F0.0
aF-3.7460111536732874e-08
aF0.9999999999999993
aa(lp930
F0.0
aF-3.7460111536732874e-08
aF0.9999999999999993
aa(lp931
F0.0
aF-3.7460111536732874e-08
aF0.9999999999999993
aa(lp932
F0.0
aF-3.7460111536732874e-08
aF0.9999999999999993
aa(lp933
F-0.4539901642583891
aF-7.360270835217737e-05
aF0.8910066920844547
aa(lp934
F-0.4539901642583891
aF-7.360270835217737e-05
aF0.8910066920844547
aa(lp935
F-0.4539901642583891
aF-7.360270835217737e-05
aF0.8910066920844547
aa(lp936
F-0.4539901642583891
aF-7.360270835217737e-05
aF0.8910066920844547
aassg76
(dp937
g4
g10
sg20
(lp938
(lp939
F1.114055956055538
aF-1.098008590756037
aF0.453721064923607
aa(lp940
F1.0853568752380092
aF-1.1938019243435773
aF0.45372210017453013
aa(lp941
F0.9129288750209514
aF-1.1421435790549899
aF0.4537118376845268
aa(lp942
F0.9416279558384805
aF-1.0463502454674496
aF0.45371080243360357
aa(lp943
F1.3845942803889406
aF-0.3443740759702457
aF0.6075802018340147
aa(lp944
F1.4126580928540509
aF-0.44035544098709456
aF0.6075802694361164
aa(lp945
F1.2398916358457919
aF-0.4908703034198434
aF0.6075774251724306
aa(lp946
F1.2118278233806816
aF-0.39488893840299455
aF0.6075773575703288
aa(lp947
F1.6036885346034029
aF-1.2190370532895576
aF1.43900631945894
aa(lp948
F1.576889207971253
aF-1.180030312252274
aF1.4309894465192632
aa(lp949
F1.543239018463362
aF-1.2073798272341758
aF1.410406230606045
aa(lp950
F1.5700383450955118
aF-1.2463865682714594
aF1.418423103545722
aasg34
g5
(g6
(I0
tp951
g8
tp952
Rp953
(I1
(I3
tp954
g15
I00
S'l\xe3\xd5_y\xa9\xf1?\x9cd~OH\x12\xe7\xbf\xcc\x7f%\xa83\xda\xf3?'
p955
tp956
bsg41
g10
sg42
(lp957
(lp958
F0.0
aF-3.7460111536732874e-08
aF0.9999999999999993
aa(lp959
F0.0
aF-3.7460111536732874e-08
aF0.9999999999999993
aa(lp960
F0.0
aF-3.7460111536732874e-08
aF0.9999999999999993
aa(lp961
F0.0
aF-3.7460111536732874e-08
aF0.9999999999999993
aa(lp962
F-6.251833279396465e-13
aF-7.492018378220741e-08
aF0.9999999999999972
aa(lp963
F-6.251833279396465e-13
aF-7.492018378220741e-08
aF0.9999999999999972
aa(lp964
F-6.251833279396465e-13
aF-7.492018378220741e-08
aF0.9999999999999972
aa(lp965
F-6.251833279396465e-13
aF-7.492018378220741e-08
aF0.9999999999999972
aa(lp966
F-0.4539901642583891
aF-7.360270835217737e-05
aF0.8910066920844547
aa(lp967
F-0.4539901642583891
aF-7.360270835217737e-05
aF0.8910066920844547
aa(lp968
F-0.4539901642583891
aF-7.360270835217737e-05
aF0.8910066920844547
aa(lp969
F-0.4539901642583891
aF-7.360270835217737e-05
aF0.8910066920844547
aassa(dp970
g2
(dp971
g4
g10
sg20
(lp972
(lp973
F1.114055956055538
aF-1.098008590756037
aF0.453721064923607
aa(lp974
F1.0853568752380092
aF-1.1938019243435773
aF0.45372210017453013
aa(lp975
F0.9129288750209514
aF-1.1421435790549899
aF0.4537118376845268
aa(lp976
F0.9416279558384805
aF-1.0463502454674496
aF0.45371080243360357
aa(lp977
F1.398537910772828
aF-0.4939463289972744
aF0.6222133624821897
aa(lp978
F1.386146835935608
aF-0.5931756656767294
aF0.6222107847265839
aa(lp979
F1.2075340301555482
aF-0.5708717312875927
aF0.6222218526767406
aa(lp980
F1.2199251049927684
aF-0.4716423946081378
aF0.6222244304323464
aa(lp981
F1.5719296703712904
aF-1.1619272646646233
aF1.416029788475302
aa(lp982
F1.5299872233866427
aF-1.1598917464867762
aF1.3927770937895654
aa(lp983
F1.5268105434304908
aF-1.2077617648510903
aF1.394316590251508
aa(lp984
F1.5687529904151383
aF-1.2097972830289374
aF1.4175692849372445
aasg34
g5
(g6
(I0
tp985
g8
tp986
Rp987
(I1
(I3
tp988
g15
I00
S'\xe4\xa4\xf3\x0b\x0b\x9d\xf1?\x12\xd75\xa73\x87\xe7\xbf\x17\x81\xfa\xf1\xd7\xdc\xf3?'
p989
tp990
bsg41
g10
sg42
(lp991
(lp992
F0.0
aF-3.7460111536732874e-08
aF0.9999999999999993
aa(lp993
F0.0
aF-3.7460111536732874e-08
aF0.9999999999999993
aa(lp994
F0.0
aF-3.7460111536732874e-08
aF0.9999999999999993
aa(lp995
F0.0
aF-3.7460111536732874e-08
aF0.9999999999999993
aa(lp996
F-6.251833279396465e-13
aF-7.492018378220741e-08
aF0.9999999999999972
aa(lp997
F-6.251833279396465e-13
aF-7.492018378220741e-08
aF0.9999999999999972
aa(lp998
F-6.251833279396465e-13
aF-7.492018378220741e-08
aF0.9999999999999972
aa(lp999
F-6.251833279396465e-13
aF-7.492018378220741e-08
aF0.9999999999999972
aa(lp1000
F-0.4539897323218329
aF-3.823790491608512e-05
aF0.8910069143863101
aa(lp1001
F-0.4539897323218329
aF-3.823790491608512e-05
aF0.8910069143863101
aa(lp1002
F-0.4539897323218329
aF-3.823790491608512e-05
aF0.8910069143863101
aa(lp1003
F-0.4539897323218329
aF-3.823790491608512e-05
aF0.8910069143863101
aassg56
(dp1004
g20
(lp1005
(lp1006
F1.114055956055538
aF-1.098008590756037
aF0.453721064923607
aa(lp1007
F1.0853568752380092
aF-1.1938019243435773
aF0.45372210017453013
aa(lp1008
F0.9129288750209514
aF-1.1421435790549899
aF0.4537118376845268
aa(lp1009
F0.9416279558384805
aF-1.0463502454674496
aF0.45371080243360357
aa(lp1010
F1.398537910772828
aF-0.4939463289972744
aF0.6222133624821897
aa(lp1011
F1.386146835935608
aF-0.5931756656767294
aF0.6222107847265839
aa(lp1012
F1.2075340301555482
aF-0.5708717312875927
aF0.6222218526767406
aa(lp1013
F1.2199251049927684
aF-0.4716423946081378
aF0.6222244304323464
aasg42
(lp1014
(lp1015
F0.0
aF-3.7460111536732874e-08
aF0.9999999999999993
aa(lp1016
F0.0
aF-3.7460111536732874e-08
aF0.9999999999999993
aa(lp1017
F0.0
aF-3.7460111536732874e-08
aF0.9999999999999993
aa(lp1018
F0.0
aF-3.7460111536732874e-08
aF0.9999999999999993
aa(lp1019
F-6.251833279396465e-13
aF-7.492018378220741e-08
aF0.9999999999999972
aa(lp1020
F-6.251833279396465e-13
aF-7.492018378220741e-08
aF0.9999999999999972
aa(lp1021
F-6.251833279396465e-13
aF-7.492018378220741e-08
aF0.9999999999999972
aa(lp1022
F-6.251833279396465e-13
aF-7.492018378220741e-08
aF0.9999999999999972
aassg76
(dp1023
g4
g10
sg20
(lp1024
(lp1025
F1.114055956055538
aF-1.098008590756037
aF0.453721064923607
aa(lp1026
F1.0853568752380092
aF-1.1938019243435773
aF0.45372210017453013
aa(lp1027
F0.9129288750209514
aF-1.1421435790549899
aF0.4537118376845268
aa(lp1028
F0.9416279558384805
aF-1.0463502454674496
aF0.45371080243360357
aa(lp1029
F1.398537910772828
aF-0.4939463289972744
aF0.6222133624821897
aa(lp1030
F1.386146835935608
aF-0.5931756656767294
aF0.6222107847265839
aa(lp1031
F1.2075340301555482
aF-0.5708717312875927
aF0.6222218526767406
aa(lp1032
F1.2199251049927684
aF-0.4716423946081378
aF0.6222244304323464
aa(lp1033
F1.6036885346034029
aF-1.2190370532895576
aF1.43900631945894
aa(lp1034
F1.576889207971253
aF-1.180030312252274
aF1.4309894465192632
aa(lp1035
F1.543239018463362
aF-1.2073798272341758
aF1.410406230606045
aa(lp1036
F1.5700383450955118
aF-1.2463865682714594
aF1.418423103545722
aasg34
g5
(g6
(I0
tp1037
g8
tp1038
Rp1039
(I1
(I3
tp1040
g15
I00
S">\xef\r\xe5s\xb1\xf1?\xe6\xa5%\xd7\x06j\xe7\xbf\xe4'\xac\x13\n\xe0\xf3?"
p1041
tp1042
bsg41
g10
sg42
(lp1043
(lp1044
F0.0
aF-3.7460111536732874e-08
aF0.9999999999999993
aa(lp1045
F0.0
aF-3.7460111536732874e-08
aF0.9999999999999993
aa(lp1046
F0.0
aF-3.7460111536732874e-08
aF0.9999999999999993
aa(lp1047
F0.0
aF-3.7460111536732874e-08
aF0.9999999999999993
aa(lp1048
F-6.251833279396465e-13
aF-7.492018378220741e-08
aF0.9999999999999972
aa(lp1049
F-6.251833279396465e-13
aF-7.492018378220741e-08
aF0.9999999999999972
aa(lp1050
F-6.251833279396465e-13
aF-7.492018378220741e-08
aF0.9999999999999972
aa(lp1051
F-6.251833279396465e-13
aF-7.492018378220741e-08
aF0.9999999999999972
aa(lp1052
F-0.4539901642583891
aF-7.360270835217737e-05
aF0.8910066920844547
aa(lp1053
F-0.4539901642583891
aF-7.360270835217737e-05
aF0.8910066920844547
aa(lp1054
F-0.4539901642583891
aF-7.360270835217737e-05
aF0.8910066920844547
aa(lp1055
F-0.4539901642583891
aF-7.360270835217737e-05
aF0.8910066920844547
aassa(dp1056
g2
(dp1057
g4
g10
sg20
(lp1058
(lp1059
F1.3769630721385389
aF-0.8253363908102247
aF0.611376642175307
aa(lp1060
F1.4051487794281348
aF-0.9212820311718485
aF0.6113757299984165
aa(lp1061
F1.23244662682872
aF-0.9720163043182545
aF0.611379965181253
aa(lp1062
F1.204260919539124
aF-0.8760706639566307
aF0.6113808773581435
aa(lp1063
F1.398537910772828
aF-0.4939463289972744
aF0.6222133624821897
aa(lp1064
F1.386146835935608
aF-0.5931756656767294
aF0.6222107847265839
aa(lp1065
F1.2075340301555482
aF-0.5708717312875927
aF0.6222218526767406
aa(lp1066
F1.2199251049927684
aF-0.4716423946081378
aF0.6222244304323464
aa(lp1067
F1.5719296703712904
aF-1.1619272646646233
aF1.416029788475302
aa(lp1068
F1.5299872233866427
aF-1.1598917464867762
aF1.3927770937895654
aa(lp1069
F1.5268105434304908
aF-1.2077617648510903
aF1.394316590251508
aa(lp1070
F1.5687529904151383
aF-1.2097972830289374
aF1.4175692849372445
aasg34
g5
(g6
(I0
tp1071
g8
tp1072
Rp1073
(I1
(I3
tp1074
g15
I00
S'\x88y\x12h\x84O\xf3?\x00\xe7\xa4a\\\x9a\xe6\xbfhT\xe9\x93P\x8b\xf4?'
p1075
tp1076
bsg41
g10
sg42
(lp1077
(lp1078
F-6.251833279396465e-13
aF-7.492018378220741e-08
aF0.9999999999999972
aa(lp1079
F-6.251833279396465e-13
aF-7.492018378220741e-08
aF0.9999999999999972
aa(lp1080
F-6.251833279396465e-13
aF-7.492018378220741e-08
aF0.9999999999999972
aa(lp1081
F-6.251833279396465e-13
aF-7.492018378220741e-08
aF0.9999999999999972
aa(lp1082
F-6.251833279396465e-13
aF-7.492018378220741e-08
aF0.9999999999999972
aa(lp1083
F-6.251833279396465e-13
aF-7.492018378220741e-08
aF0.9999999999999972
aa(lp1084
F-6.251833279396465e-13
aF-7.492018378220741e-08
aF0.9999999999999972
aa(lp1085
F-6.251833279396465e-13
aF-7.492018378220741e-08
aF0.9999999999999972
aa(lp1086
F-0.4539897323218329
aF-3.823790491608512e-05
aF0.8910069143863101
aa(lp1087
F-0.4539897323218329
aF-3.823790491608512e-05
aF0.8910069143863101
aa(lp1088
F-0.4539897323218329
aF-3.823790491608512e-05
aF0.8910069143863101
aa(lp1089
F-0.4539897323218329
aF-3.823790491608512e-05
aF0.8910069143863101
aassg56
(dp1090
g20
(lp1091
(lp1092
F1.398537910772828
aF-0.4939463289972744
aF0.6222133624821897
aa(lp1093
F1.386146835935608
aF-0.5931756656767294
aF0.6222107847265839
aa(lp1094
F1.2075340301555482
aF-0.5708717312875927
aF0.6222218526767406
aa(lp1095
F1.2199251049927684
aF-0.4716423946081378
aF0.6222244304323464
aa(lp1096
F1.5719296703712904
aF-1.1619272646646233
aF1.416029788475302
aa(lp1097
F1.5299872233866427
aF-1.1598917464867762
aF1.3927770937895654
aa(lp1098
F1.5268105434304908
aF-1.2077617648510903
aF1.394316590251508
aa(lp1099
F1.5687529904151383
aF-1.2097972830289374
aF1.4175692849372445
aasg42
(lp1100
(lp1101
F-6.251833279396465e-13
aF-7.492018378220741e-08
aF0.9999999999999972
aa(lp1102
F-6.251833279396465e-13
aF-7.492018378220741e-08
aF0.9999999999999972
aa(lp1103
F-6.251833279396465e-13
aF-7.492018378220741e-08
aF0.9999999999999972
aa(lp1104
F-6.251833279396465e-13
aF-7.492018378220741e-08
aF0.9999999999999972
aa(lp1105
F-0.4539897323218329
aF-3.823790491608512e-05
aF0.8910069143863101
aa(lp1106
F-0.4539897323218329
aF-3.823790491608512e-05
aF0.8910069143863101
aa(lp1107
F-0.4539897323218329
aF-3.823790491608512e-05
aF0.8910069143863101
aa(lp1108
F-0.4539897323218329
aF-3.823790491608512e-05
aF0.8910069143863101
aassg76
(dp1109
g4
g10
sg20
(lp1110
(lp1111
F1.114055956055538
aF-1.098008590756037
aF0.453721064923607
aa(lp1112
F1.0853568752380092
aF-1.1938019243435773
aF0.45372210017453013
aa(lp1113
F0.9129288750209514
aF-1.1421435790549899
aF0.4537118376845268
aa(lp1114
F0.9416279558384805
aF-1.0463502454674496
aF0.45371080243360357
aa(lp1115
F1.398537910772828
aF-0.4939463289972744
aF0.6222133624821897
aa(lp1116
F1.386146835935608
aF-0.5931756656767294
aF0.6222107847265839
aa(lp1117
F1.2075340301555482
aF-0.5708717312875927
aF0.6222218526767406
aa(lp1118
F1.2199251049927684
aF-0.4716423946081378
aF0.6222244304323464
aa(lp1119
F1.5719296703712904
aF-1.1619272646646233
aF1.416029788475302
aa(lp1120
F1.5299872233866427
aF-1.1598917464867762
aF1.3927770937895654
aa(lp1121
F1.5268105434304908
aF-1.2077617648510903
aF1.394316590251508
aa(lp1122
F1.5687529904151383
aF-1.2097972830289374
aF1.4175692849372445
aasg34
g5
(g6
(I0
tp1123
g8
tp1124
Rp1125
(I1
(I3
tp1126
g15
I00
S'\xe4\xa4\xf3\x0b\x0b\x9d\xf1?\x12\xd75\xa73\x87\xe7\xbf\x17\x81\xfa\xf1\xd7\xdc\xf3?'
p1127
tp1128
bsg41
g10
sg42
(lp1129
(lp1130
F0.0
aF-3.7460111536732874e-08
aF0.9999999999999993
aa(lp1131
F0.0
aF-3.7460111536732874e-08
aF0.9999999999999993
aa(lp1132
F0.0
aF-3.7460111536732874e-08
aF0.9999999999999993
aa(lp1133
F0.0
aF-3.7460111536732874e-08
aF0.9999999999999993
aa(lp1134
F-6.251833279396465e-13
aF-7.492018378220741e-08
aF0.9999999999999972
aa(lp1135
F-6.251833279396465e-13
aF-7.492018378220741e-08
aF0.9999999999999972
aa(lp1136
F-6.251833279396465e-13
aF-7.492018378220741e-08
aF0.9999999999999972
aa(lp1137
F-6.251833279396465e-13
aF-7.492018378220741e-08
aF0.9999999999999972
aa(lp1138
F-0.4539897323218329
aF-3.823790491608512e-05
aF0.8910069143863101
aa(lp1139
F-0.4539897323218329
aF-3.823790491608512e-05
aF0.8910069143863101
aa(lp1140
F-0.4539897323218329
aF-3.823790491608512e-05
aF0.8910069143863101
aa(lp1141
F-0.4539897323218329
aF-3.823790491608512e-05
aF0.8910069143863101
aassa(dp1142
g2
(dp1143
g4
g10
sg20
(lp1144
(lp1145
F1.3769630721385389
aF-0.8253363908102247
aF0.611376642175307
aa(lp1146
F1.4051487794281348
aF-0.9212820311718485
aF0.6113757299984165
aa(lp1147
F1.23244662682872
aF-0.9720163043182545
aF0.611379965181253
aa(lp1148
F1.204260919539124
aF-0.8760706639566307
aF0.6113808773581435
aa(lp1149
F1.4085285018105644
aF-0.4455725705512952
aF0.6048537820009451
aa(lp1150
F1.4374474748482415
aF-0.541299750485247
aF0.6048583919184064
aa(lp1151
F1.2651385512503495
aF-0.5933539023958314
aF0.6048474209630702
aa(lp1152
F1.2362195782126724
aF-0.49762672246187956
aF0.6048428110456089
aa(lp1153
F1.5719296703712904
aF-1.1619272646646233
aF1.416029788475302
aa(lp1154
F1.5299872233866427
aF-1.1598917464867762
aF1.3927770937895654
aa(lp1155
F1.5268105434304908
aF-1.2077617648510903
aF1.394316590251508
aa(lp1156
F1.5687529904151383
aF-1.2097972830289374
aF1.4175692849372445
aasg34
g5
(g6
(I0
tp1157
g8
tp1158
Rp1159
(I1
(I3
tp1160
g15
I00
S'E~\xd4\xd6\xa8\x90\xf4?\x19k\x8f\xc2\x930\xe6\xbfr\x88\xcb`\x8a\x02\xf5?'
p1161
tp1162
bsg41
g10
sg42
(lp1163
(lp1164
F-6.251833279396465e-13
aF-7.492018378220741e-08
aF0.9999999999999972
aa(lp1165
F-6.251833279396465e-13
aF-7.492018378220741e-08
aF0.9999999999999972
aa(lp1166
F-6.251833279396465e-13
aF-7.492018378220741e-08
aF0.9999999999999972
aa(lp1167
F-6.251833279396465e-13
aF-7.492018378220741e-08
aF0.9999999999999972
aa(lp1168
F-6.251833279396465e-13
aF-7.492018378220741e-08
aF0.9999999999999972
aa(lp1169
F-6.251833279396465e-13
aF-7.492018378220741e-08
aF0.9999999999999972
aa(lp1170
F-6.251833279396465e-13
aF-7.492018378220741e-08
aF0.9999999999999972
aa(lp1171
F-6.251833279396465e-13
aF-7.492018378220741e-08
aF0.9999999999999972
aa(lp1172
F-0.4539897323218329
aF-3.823790491608512e-05
aF0.8910069143863101
aa(lp1173
F-0.4539897323218329
aF-3.823790491608512e-05
aF0.8910069143863101
aa(lp1174
F-0.4539897323218329
aF-3.823790491608512e-05
aF0.8910069143863101
aa(lp1175
F-0.4539897323218329
aF-3.823790491608512e-05
aF0.8910069143863101
aassg56
(dp1176
g20
(lp1177
(lp1178
F1.3769630721385389
aF-0.8253363908102247
aF0.611376642175307
aa(lp1179
F1.4051487794281348
aF-0.9212820311718485
aF0.6113757299984165
aa(lp1180
F1.23244662682872
aF-0.9720163043182545
aF0.611379965181253
aa(lp1181
F1.204260919539124
aF-0.8760706639566307
aF0.6113808773581435
aa(lp1182
F1.5719296703712904
aF-1.1619272646646233
aF1.416029788475302
aa(lp1183
F1.5299872233866427
aF-1.1598917464867762
aF1.3927770937895654
aa(lp1184
F1.5268105434304908
aF-1.2077617648510903
aF1.394316590251508
aa(lp1185
F1.5687529904151383
aF-1.2097972830289374
aF1.4175692849372445
aasg42
(lp1186
(lp1187
F-6.251833279396465e-13
aF-7.492018378220741e-08
aF0.9999999999999972
aa(lp1188
F-6.251833279396465e-13
aF-7.492018378220741e-08
aF0.9999999999999972
aa(lp1189
F-6.251833279396465e-13
aF-7.492018378220741e-08
aF0.9999999999999972
aa(lp1190
F-6.251833279396465e-13
aF-7.492018378220741e-08
aF0.9999999999999972
aa(lp1191
F-0.4539897323218329
aF-3.823790491608512e-05
aF0.8910069143863101
aa(lp1192
F-0.4539897323218329
aF-3.823790491608512e-05
aF0.8910069143863101
aa(lp1193
F-0.4539897323218329
aF-3.823790491608512e-05
aF0.8910069143863101
aa(lp1194
F-0.4539897323218329
aF-3.823790491608512e-05
aF0.8910069143863101
aassg76
(dp1195
g4
g10
sg20
(lp1196
(lp1197
F1.3769630721385389
aF-0.8253363908102247
aF0.611376642175307
aa(lp1198
F1.4051487794281348
aF-0.9212820311718485
aF0.6113757299984165
aa(lp1199
F1.23244662682872
aF-0.9720163043182545
aF0.611379965181253
aa(lp1200
F1.204260919539124
aF-0.8760706639566307
aF0.6113808773581435
aa(lp1201
F1.398537910772828
aF-0.4939463289972744
aF0.6222133624821897
aa(lp1202
F1.386146835935608
aF-0.5931756656767294
aF0.6222107847265839
aa(lp1203
F1.2075340301555482
aF-0.5708717312875927
aF0.6222218526767406
aa(lp1204
F1.2199251049927684
aF-0.4716423946081378
aF0.6222244304323464
aa(lp1205
F1.5719296703712904
aF-1.1619272646646233
aF1.416029788475302
aa(lp1206
F1.5299872233866427
aF-1.1598917464867762
aF1.3927770937895654
aa(lp1207
F1.5268105434304908
aF-1.2077617648510903
aF1.394316590251508
aa(lp1208
F1.5687529904151383
aF-1.2097972830289374
aF1.4175692849372445
aasg34
g5
(g6
(I0
tp1209
g8
tp1210
Rp1211
(I1
(I3
tp1212
g15
I00
S'\x88y\x12h\x84O\xf3?\x00\xe7\xa4a\\\x9a\xe6\xbfhT\xe9\x93P\x8b\xf4?'
p1213
tp1214
bsg41
g10
sg42
(lp1215
(lp1216
F-6.251833279396465e-13
aF-7.492018378220741e-08
aF0.9999999999999972
aa(lp1217
F-6.251833279396465e-13
aF-7.492018378220741e-08
aF0.9999999999999972
aa(lp1218
F-6.251833279396465e-13
aF-7.492018378220741e-08
aF0.9999999999999972
aa(lp1219
F-6.251833279396465e-13
aF-7.492018378220741e-08
aF0.9999999999999972
aa(lp1220
F-6.251833279396465e-13
aF-7.492018378220741e-08
aF0.9999999999999972
aa(lp1221
F-6.251833279396465e-13
aF-7.492018378220741e-08
aF0.9999999999999972
aa(lp1222
F-6.251833279396465e-13
aF-7.492018378220741e-08
aF0.9999999999999972
aa(lp1223
F-6.251833279396465e-13
aF-7.492018378220741e-08
aF0.9999999999999972
aa(lp1224
F-0.4539897323218329
aF-3.823790491608512e-05
aF0.8910069143863101
aa(lp1225
F-0.4539897323218329
aF-3.823790491608512e-05
aF0.8910069143863101
aa(lp1226
F-0.4539897323218329
aF-3.823790491608512e-05
aF0.8910069143863101
aa(lp1227
F-0.4539897323218329
aF-3.823790491608512e-05
aF0.8910069143863101
aassa(dp1228
g2
(dp1229
g4
g10
sg20
(lp1230
(lp1231
F1.3769630721385389
aF-0.8253363908102247
aF0.611376642175307
aa(lp1232
F1.4051487794281348
aF-0.9212820311718485
aF0.6113757299984165
aa(lp1233
F1.23244662682872
aF-0.9720163043182545
aF0.611379965181253
aa(lp1234
F1.204260919539124
aF-0.8760706639566307
aF0.6113808773581435
aa(lp1235
F1.4085285018105644
aF-0.4455725705512952
aF0.6048537820009451
aa(lp1236
F1.4374474748482415
aF-0.541299750485247
aF0.6048583919184064
aa(lp1237
F1.2651385512503495
aF-0.5933539023958314
aF0.6048474209630702
aa(lp1238
F1.2362195782126724
aF-0.49762672246187956
aF0.6048428110456089
aa(lp1239
F1.6010484101554152
aF-1.183416151373133
aF1.4283050467534304
aa(lp1240
F1.56701228952877
aF-1.1585254993194172
aF1.4053704017009303
aa(lp1241
F1.5435411920357536
aF-1.1993177964771287
aF1.3959313297838496
aa(lp1242
F1.5775773126623989
aF-1.2242084485308444
aF1.4188659748363497
aasg34
g5
(g6
(I0
tp1243
g8
tp1244
Rp1245
(I1
(I3
tp1246
g15
I00
S'\xd2\xf6\xb0\xb9\xe2\xd0\xf5?\x93\x19\xda\xe0\xe4\xd3\xe5\xbft\xde\xc9gjj\xf5?'
p1247
tp1248
bsg41
g10
sg42
(lp1249
(lp1250
F-6.251833279396465e-13
aF-7.492018378220741e-08
aF0.9999999999999972
aa(lp1251
F-6.251833279396465e-13
aF-7.492018378220741e-08
aF0.9999999999999972
aa(lp1252
F-6.251833279396465e-13
aF-7.492018378220741e-08
aF0.9999999999999972
aa(lp1253
F-6.251833279396465e-13
aF-7.492018378220741e-08
aF0.9999999999999972
aa(lp1254
F-6.251833279396465e-13
aF-7.492018378220741e-08
aF0.9999999999999972
aa(lp1255
F-6.251833279396465e-13
aF-7.492018378220741e-08
aF0.9999999999999972
aa(lp1256
F-6.251833279396465e-13
aF-7.492018378220741e-08
aF0.9999999999999972
aa(lp1257
F-6.251833279396465e-13
aF-7.492018378220741e-08
aF0.9999999999999972
aa(lp1258
F-0.4539897323218329
aF-3.823790491608512e-05
aF0.8910069143863101
aa(lp1259
F-0.4539897323218329
aF-3.823790491608512e-05
aF0.8910069143863101
aa(lp1260
F-0.4539897323218329
aF-3.823790491608512e-05
aF0.8910069143863101
aa(lp1261
F-0.4539897323218329
aF-3.823790491608512e-05
aF0.8910069143863101
aassg56
(dp1262
g20
(lp1263
(lp1264
F1.3769630721385389
aF-0.8253363908102247
aF0.611376642175307
aa(lp1265
F1.4051487794281348
aF-0.9212820311718485
aF0.6113757299984165
aa(lp1266
F1.23244662682872
aF-0.9720163043182545
aF0.611379965181253
aa(lp1267
F1.204260919539124
aF-0.8760706639566307
aF0.6113808773581435
aa(lp1268
F1.4085285018105644
aF-0.4455725705512952
aF0.6048537820009451
aa(lp1269
F1.4374474748482415
aF-0.541299750485247
aF0.6048583919184064
aa(lp1270
F1.2651385512503495
aF-0.5933539023958314
aF0.6048474209630702
aa(lp1271
F1.2362195782126724
aF-0.49762672246187956
aF0.6048428110456089
aasg42
(lp1272
(lp1273
F-6.251833279396465e-13
aF-7.492018378220741e-08
aF0.9999999999999972
aa(lp1274
F-6.251833279396465e-13
aF-7.492018378220741e-08
aF0.9999999999999972
aa(lp1275
F-6.251833279396465e-13
aF-7.492018378220741e-08
aF0.9999999999999972
aa(lp1276
F-6.251833279396465e-13
aF-7.492018378220741e-08
aF0.9999999999999972
aa(lp1277
F-6.251833279396465e-13
aF-7.492018378220741e-08
aF0.9999999999999972
aa(lp1278
F-6.251833279396465e-13
aF-7.492018378220741e-08
aF0.9999999999999972
aa(lp1279
F-6.251833279396465e-13
aF-7.492018378220741e-08
aF0.9999999999999972
aa(lp1280
F-6.251833279396465e-13
aF-7.492018378220741e-08
aF0.9999999999999972
aassg76
(dp1281
g4
g10
sg20
(lp1282
(lp1283
F1.3769630721385389
aF-0.8253363908102247
aF0.611376642175307
aa(lp1284
F1.4051487794281348
aF-0.9212820311718485
aF0.6113757299984165
aa(lp1285
F1.23244662682872
aF-0.9720163043182545
aF0.611379965181253
aa(lp1286
F1.204260919539124
aF-0.8760706639566307
aF0.6113808773581435
aa(lp1287
F1.4085285018105644
aF-0.4455725705512952
aF0.6048537820009451
aa(lp1288
F1.4374474748482415
aF-0.541299750485247
aF0.6048583919184064
aa(lp1289
F1.2651385512503495
aF-0.5933539023958314
aF0.6048474209630702
aa(lp1290
F1.2362195782126724
aF-0.49762672246187956
aF0.6048428110456089
aa(lp1291
F1.5719296703712904
aF-1.1619272646646233
aF1.416029788475302
aa(lp1292
F1.5299872233866427
aF-1.1598917464867762
aF1.3927770937895654
aa(lp1293
F1.5268105434304908
aF-1.2077617648510903
aF1.394316590251508
aa(lp1294
F1.5687529904151383
aF-1.2097972830289374
aF1.4175692849372445
aasg34
g5
(g6
(I0
tp1295
g8
tp1296
Rp1297
(I1
(I3
tp1298
g15
I00
S'E~\xd4\xd6\xa8\x90\xf4?\x19k\x8f\xc2\x930\xe6\xbfr\x88\xcb`\x8a\x02\xf5?'
p1299
tp1300
bsg41
g10
sg42
(lp1301
(lp1302
F-6.251833279396465e-13
aF-7.492018378220741e-08
aF0.9999999999999972
aa(lp1303
F-6.251833279396465e-13
aF-7.492018378220741e-08
aF0.9999999999999972
aa(lp1304
F-6.251833279396465e-13
aF-7.492018378220741e-08
aF0.9999999999999972
aa(lp1305
F-6.251833279396465e-13
aF-7.492018378220741e-08
aF0.9999999999999972
aa(lp1306
F-6.251833279396465e-13
aF-7.492018378220741e-08
aF0.9999999999999972
aa(lp1307
F-6.251833279396465e-13
aF-7.492018378220741e-08
aF0.9999999999999972
aa(lp1308
F-6.251833279396465e-13
aF-7.492018378220741e-08
aF0.9999999999999972
aa(lp1309
F-6.251833279396465e-13
aF-7.492018378220741e-08
aF0.9999999999999972
aa(lp1310
F-0.4539897323218329
aF-3.823790491608512e-05
aF0.8910069143863101
aa(lp1311
F-0.4539897323218329
aF-3.823790491608512e-05
aF0.8910069143863101
aa(lp1312
F-0.4539897323218329
aF-3.823790491608512e-05
aF0.8910069143863101
aa(lp1313
F-0.4539897323218329
aF-3.823790491608512e-05
aF0.8910069143863101
aassa(dp1314
g2
(dp1315
g4
g10
sg20
(lp1316
(lp1317
F1.3769630721385389
aF-0.8253363908102247
aF0.611376642175307
aa(lp1318
F1.4051487794281348
aF-0.9212820311718485
aF0.6113757299984165
aa(lp1319
F1.23244662682872
aF-0.9720163043182545
aF0.611379965181253
aa(lp1320
F1.204260919539124
aF-0.8760706639566307
aF0.6113808773581435
aa(lp1321
F1.4085285018105644
aF-0.4455725705512952
aF0.6048537820009451
aa(lp1322
F1.4374474748482415
aF-0.541299750485247
aF0.6048583919184064
aa(lp1323
F1.2651385512503495
aF-0.5933539023958314
aF0.6048474209630702
aa(lp1324
F1.2362195782126724
aF-0.49762672246187956
aF0.6048428110456089
aa(lp1325
F1.6838319925168772
aF-1.188933895335222
aF1.482363568219566
aa(lp1326
F1.6493421532166543
aF-1.1649964825311347
aF1.4590944627738736
aa(lp1327
F1.6266294697038302
aF-1.2063424229864637
aF1.4502261359437263
aa(lp1328
F1.661119309004053
aF-1.2302798357905511
aF1.4734952413894187
aasg34
g5
(g6
(I0
tp1329
g8
tp1330
Rp1331
(I1
(I3
tp1332
g15
I00
S'\xbco\xfb;\x06\x17\xf7?E\x0f\x12\x01\xc7\x96\xe5\xbf\xd8H\x18s~\xed\xf5?'
p1333
tp1334
bsg41
g10
sg42
(lp1335
(lp1336
F-6.251833279396465e-13
aF-7.492018378220741e-08
aF0.9999999999999972
aa(lp1337
F-6.251833279396465e-13
aF-7.492018378220741e-08
aF0.9999999999999972
aa(lp1338
F-6.251833279396465e-13
aF-7.492018378220741e-08
aF0.9999999999999972
aa(lp1339
F-6.251833279396465e-13
aF-7.492018378220741e-08
aF0.9999999999999972
aa(lp1340
F-6.251833279396465e-13
aF-7.492018378220741e-08
aF0.9999999999999972
aa(lp1341
F-6.251833279396465e-13
aF-7.492018378220741e-08
aF0.9999999999999972
aa(lp1342
F-6.251833279396465e-13
aF-7.492018378220741e-08
aF0.9999999999999972
aa(lp1343
F-6.251833279396465e-13
aF-7.492018378220741e-08
aF0.9999999999999972
aa(lp1344
F-0.4539897323218329
aF-3.823790491608512e-05
aF0.8910069143863101
aa(lp1345
F-0.4539897323218329
aF-3.823790491608512e-05
aF0.8910069143863101
aa(lp1346
F-0.4539897323218329
aF-3.823790491608512e-05
aF0.8910069143863101
aa(lp1347
F-0.4539897323218329
aF-3.823790491608512e-05
aF0.8910069143863101
aassg56
(dp1348
g20
(lp1349
(lp1350
F1.3769630721385389
aF-0.8253363908102247
aF0.611376642175307
aa(lp1351
F1.4051487794281348
aF-0.9212820311718485
aF0.6113757299984165
aa(lp1352
F1.23244662682872
aF-0.9720163043182545
aF0.611379965181253
aa(lp1353
F1.204260919539124
aF-0.8760706639566307
aF0.6113808773581435
aa(lp1354
F1.4085285018105644
aF-0.4455725705512952
aF0.6048537820009451
aa(lp1355
F1.4374474748482415
aF-0.541299750485247
aF0.6048583919184064
aa(lp1356
F1.2651385512503495
aF-0.5933539023958314
aF0.6048474209630702
aa(lp1357
F1.2362195782126724
aF-0.49762672246187956
aF0.6048428110456089
aasg42
(lp1358
(lp1359
F-6.251833279396465e-13
aF-7.492018378220741e-08
aF0.9999999999999972
aa(lp1360
F-6.251833279396465e-13
aF-7.492018378220741e-08
aF0.9999999999999972
aa(lp1361
F-6.251833279396465e-13
aF-7.492018378220741e-08
aF0.9999999999999972
aa(lp1362
F-6.251833279396465e-13
aF-7.492018378220741e-08
aF0.9999999999999972
aa(lp1363
F-6.251833279396465e-13
aF-7.492018378220741e-08
aF0.9999999999999972
aa(lp1364
F-6.251833279396465e-13
aF-7.492018378220741e-08
aF0.9999999999999972
aa(lp1365
F-6.251833279396465e-13
aF-7.492018378220741e-08
aF0.9999999999999972
aa(lp1366
F-6.251833279396465e-13
aF-7.492018378220741e-08
aF0.9999999999999972
aassg76
(dp1367
g4
g10
sg20
(lp1368
(lp1369
F1.3769630721385389
aF-0.8253363908102247
aF0.611376642175307
aa(lp1370
F1.4051487794281348
aF-0.9212820311718485
aF0.6113757299984165
aa(lp1371
F1.23244662682872
aF-0.9720163043182545
aF0.611379965181253
aa(lp1372
F1.204260919539124
aF-0.8760706639566307
aF0.6113808773581435
aa(lp1373
F1.4085285018105644
aF-0.4455725705512952
aF0.6048537820009451
aa(lp1374
F1.4374474748482415
aF-0.541299750485247
aF0.6048583919184064
aa(lp1375
F1.2651385512503495
aF-0.5933539023958314
aF0.6048474209630702
aa(lp1376
F1.2362195782126724
aF-0.49762672246187956
aF0.6048428110456089
aa(lp1377
F1.6010484101554152
aF-1.183416151373133
aF1.4283050467534304
aa(lp1378
F1.56701228952877
aF-1.1585254993194172
aF1.4053704017009303
aa(lp1379
F1.5435411920357536
aF-1.1993177964771287
aF1.3959313297838496
aa(lp1380
F1.5775773126623989
aF-1.2242084485308444
aF1.4188659748363497
aasg34
g5
(g6
(I0
tp1381
g8
tp1382
Rp1383
(I1
(I3
tp1384
g15
I00
S'\xd2\xf6\xb0\xb9\xe2\xd0\xf5?\x93\x19\xda\xe0\xe4\xd3\xe5\xbft\xde\xc9gjj\xf5?'
p1385
tp1386
bsg41
g10
sg42
(lp1387
(lp1388
F-6.251833279396465e-13
aF-7.492018378220741e-08
aF0.9999999999999972
aa(lp1389
F-6.251833279396465e-13
aF-7.492018378220741e-08
aF0.9999999999999972
aa(lp1390
F-6.251833279396465e-13
aF-7.492018378220741e-08
aF0.9999999999999972
aa(lp1391
F-6.251833279396465e-13
aF-7.492018378220741e-08
aF0.9999999999999972
aa(lp1392
F-6.251833279396465e-13
aF-7.492018378220741e-08
aF0.9999999999999972
aa(lp1393
F-6.251833279396465e-13
aF-7.492018378220741e-08
aF0.9999999999999972
aa(lp1394
F-6.251833279396465e-13
aF-7.492018378220741e-08
aF0.9999999999999972
aa(lp1395
F-6.251833279396465e-13
aF-7.492018378220741e-08
aF0.9999999999999972
aa(lp1396
F-0.4539897323218329
aF-3.823790491608512e-05
aF0.8910069143863101
aa(lp1397
F-0.4539897323218329
aF-3.823790491608512e-05
aF0.8910069143863101
aa(lp1398
F-0.4539897323218329
aF-3.823790491608512e-05
aF0.8910069143863101
aa(lp1399
F-0.4539897323218329
aF-3.823790491608512e-05
aF0.8910069143863101
aassa.