(lp0
(dp1
S'end_state'
p2
(dp3
S'ddc'
p4
cnumpy.core.multiarray
_reconstruct
p5
(cnumpy
ndarray
p6
(I0
tp7
S'b'
p8
tp9
Rp10
(I1
(I3
tp11
cnumpy
dtype
p12
(S'f8'
p13
I0
I1
tp14
Rp15
(I3
S'<'
p16
NNNI-1
I-1
I0
tp17
bI00
S'\x00\x00\x00\x00\x00\x00\x00\x00\x00\x00\x00\x00\x00\x00\x00\x00\x00\x00\x00\x00\x00\x00\x00\x00'
p18
tp19
bsS'P'
p20
(lp21
(lp22
F0.1994903513749846
aF-0.8649999999999998
aF1.4882238505431467e-07
aa(lp23
F0.1994903513749846
aF-0.9649999999999999
aF1.4882238505431467e-07
aa(lp24
F0.019490351374984602
aF-0.9649999999999999
aF1.4882238508207024e-07
aa(lp25
F0.019490351374984602
aF-0.8649999999999998
aF1.4882238508207024e-07
aa(lp26
F0.5111088085201498
aF-0.7093530222119352
aF0.15999155248547636
aa(lp27
F0.4819229163428693
aF-0.8049991601183912
aF0.15999273462093738
aa(lp28
F0.3097598681904344
aF-0.7524645543043366
aF0.1599861900832783
aa(lp29
F0.33894576036771484
aF-0.6568184163978805
aF0.15998500794781728
aa(lp30
F0.4586632693195972
aF-1.1730246286306705
aF0.8570569650388116
aa(lp31
F0.42269107364132075
aF-1.1487699626827252
aF0.8365213297226746
aa(lp32
F0.4010748828616519
aF-1.1901797176647713
aF0.8254772141626185
aa(lp33
F0.43704707853992836
aF-1.2144343836127165
aF0.8460128494787555
aasS'c'
p34
g5
(g6
(I0
tp35
g8
tp36
Rp37
(I1
(I3
tp38
g15
I00
S'\xa59%\x99\xd0\xe2\xc7?\xa7\x1c\x1c\xce\xdc\x1f\xea\xbf\xcc:\xb5\xcc\xdb2\xeb?'
p39
tp40
bsS'dc'
p41
g10
sS'N'
p42
(lp43
(lp44
F0.0
aF0.0
aF1.0
aa(lp45
F0.0
aF0.0
aF1.0
aa(lp46
F0.0
aF0.0
aF1.0
aa(lp47
F0.0
aF0.0
aF1.0
aa(lp48
F-3.125913844910809e-13
aF-3.7460091891103785e-08
aF0.9999999999999993
aa(lp49
F-3.125913844910809e-13
aF-3.7460091891103785e-08
aF0.9999999999999993
aa(lp50
F-3.125913844910809e-13
aF-3.7460091891103785e-08
aF0.9999999999999993
aa(lp51
F-3.125913844910809e-13
aF-3.7460091891103785e-08
aF0.9999999999999993
aa(lp52
F-0.4539897323218329
aF-3.823790491608512e-05
aF0.8910069143863101
aa(lp53
F-0.4539897323218329
aF-3.823790491608512e-05
aF0.8910069143863101
aa(lp54
F-0.4539897323218329
aF-3.823790491608512e-05
aF0.8910069143863101
aa(lp55
F-0.4539897323218329
aF-3.823790491608512e-05
aF0.8910069143863101
aassS'inter_contacts'
p56
(dp57
g20
(lp58
(lp59
F0.1994903513749846
aF-0.8649999999999998
aF1.4882238505431467e-07
aa(lp60
F0.1994903513749846
aF-0.9649999999999999
aF1.4882238505431467e-07
aa(lp61
F0.019490351374984602
aF-0.9649999999999999
aF1.4882238508207024e-07
aa(lp62
F0.019490351374984602
aF-0.8649999999999998
aF1.4882238508207024e-07
aa(lp63
F0.4586632693195972
aF-1.1730246286306705
aF0.8570569650388116
aa(lp64
F0.42269107364132075
aF-1.1487699626827252
aF0.8365213297226746
aa(lp65
F0.4010748828616519
aF-1.1901797176647713
aF0.8254772141626185
aa(lp66
F0.43704707853992836
aF-1.2144343836127165
aF0.8460128494787555
aasg42
(lp67
(lp68
F0.0
aF0.0
aF1.0
aa(lp69
F0.0
aF0.0
aF1.0
aa(lp70
F0.0
aF0.0
aF1.0
aa(lp71
F0.0
aF0.0
aF1.0
aa(lp72
F-0.4539897323218329
aF-3.823790491608512e-05
aF0.8910069143863101
aa(lp73
F-0.4539897323218329
aF-3.823790491608512e-05
aF0.8910069143863101
aa(lp74
F-0.4539897323218329
aF-3.823790491608512e-05
aF0.8910069143863101
aa(lp75
F-0.4539897323218329
aF-3.823790491608512e-05
aF0.8910069143863101
aassS'start_state'
p76
(dp77
g4
g10
sg20
(lp78
(lp79
F0.1994903513749846
aF-0.8649999999999998
aF1.4882238505431467e-07
aa(lp80
F0.1994903513749846
aF-0.9649999999999999
aF1.4882238505431467e-07
aa(lp81
F0.019490351374984602
aF-0.9649999999999999
aF1.4882238508207024e-07
aa(lp82
F0.019490351374984602
aF-0.8649999999999998
aF1.4882238508207024e-07
aa(lp83
F0.1994903513749846
aF-0.6749999999999999
aF1.4882238505431467e-07
aa(lp84
F0.1994903513749846
aF-0.775
aF1.4882238505431467e-07
aa(lp85
F0.019490351374984602
aF-0.775
aF1.4882238508207024e-07
aa(lp86
F0.019490351374984602
aF-0.6749999999999999
aF1.4882238508207024e-07
aa(lp87
F0.4586632693195972
aF-1.1730246286306705
aF0.8570569650388116
aa(lp88
F0.42269107364132075
aF-1.1487699626827252
aF0.8365213297226746
aa(lp89
F0.4010748828616519
aF-1.1901797176647713
aF0.8254772141626185
aa(lp90
F0.43704707853992836
aF-1.2144343836127165
aF0.8460128494787555
aasg34
g5
(g6
(I0
tp91
g8
tp92
Rp93
(I1
(I3
tp94
g15
I00
S"mCI\x8f\x03\xeb\xbe?\x18V\xe7S\x9f'\xea\xbf\xef\xfe\x93\xd01 \xea?"
p95
tp96
bsg41
g10
sg42
(lp97
(lp98
F0.0
aF0.0
aF1.0
aa(lp99
F0.0
aF0.0
aF1.0
aa(lp100
F0.0
aF0.0
aF1.0
aa(lp101
F0.0
aF0.0
aF1.0
aa(lp102
F0.0
aF0.0
aF1.0
aa(lp103
F0.0
aF0.0
aF1.0
aa(lp104
F0.0
aF0.0
aF1.0
aa(lp105
F0.0
aF0.0
aF1.0
aa(lp106
F-0.4539897323218329
aF-3.823790491608512e-05
aF0.8910069143863101
aa(lp107
F-0.4539897323218329
aF-3.823790491608512e-05
aF0.8910069143863101
aa(lp108
F-0.4539897323218329
aF-3.823790491608512e-05
aF0.8910069143863101
aa(lp109
F-0.4539897323218329
aF-3.823790491608512e-05
aF0.8910069143863101
aassa(dp110
g2
(dp111
g4
g10
sg20
(lp112
(lp113
F0.1994903513749846
aF-0.8649999999999998
aF1.4882238505431467e-07
aa(lp114
F0.1994903513749846
aF-0.9649999999999999
aF1.4882238505431467e-07
aa(lp115
F0.019490351374984602
aF-0.9649999999999999
aF1.4882238508207024e-07
aa(lp116
F0.019490351374984602
aF-0.8649999999999998
aF1.4882238508207024e-07
aa(lp117
F0.5111088085201498
aF-0.7093530222119352
aF0.15999155248547636
aa(lp118
F0.4819229163428693
aF-0.8049991601183912
aF0.15999273462093738
aa(lp119
F0.3097598681904344
aF-0.7524645543043366
aF0.1599861900832783
aa(lp120
F0.33894576036771484
aF-0.6568184163978805
aF0.15998500794781728
aa(lp121
F0.49668509512916004
aF-1.1682593765263827
aF0.8748765854844137
aa(lp122
F0.4563215327872259
aF-1.1527905681580835
aF0.8540079774141169
aa(lp123
F0.4421209971169039
aF-1.198219706869061
aF0.8478000677268257
aa(lp124
F0.482484559458838
aF-1.2136885152373602
aF0.8686686757971224
aasg34
g5
(g6
(I0
tp125
g8
tp126
Rp127
(I1
(I3
tp128
g15
I00
S'\x81\xa3\x07M\x89P\xcc?\x80\xd1\x1f\x01\xb4\x02\xea\xbf\xb4\xe5qd\xca\xab\xeb?'
p129
tp130
bsg41
g10
sg42
(lp131
(lp132
F0.0
aF0.0
aF1.0
aa(lp133
F0.0
aF0.0
aF1.0
aa(lp134
F0.0
aF0.0
aF1.0
aa(lp135
F0.0
aF0.0
aF1.0
aa(lp136
F-3.125913844910809e-13
aF-3.7460091891103785e-08
aF0.9999999999999993
aa(lp137
F-3.125913844910809e-13
aF-3.7460091891103785e-08
aF0.9999999999999993
aa(lp138
F-3.125913844910809e-13
aF-3.7460091891103785e-08
aF0.9999999999999993
aa(lp139
F-3.125913844910809e-13
aF-3.7460091891103785e-08
aF0.9999999999999993
aa(lp140
F-0.4539897323218329
aF-3.823790491608512e-05
aF0.8910069143863101
aa(lp141
F-0.4539897323218329
aF-3.823790491608512e-05
aF0.8910069143863101
aa(lp142
F-0.4539897323218329
aF-3.823790491608512e-05
aF0.8910069143863101
aa(lp143
F-0.4539897323218329
aF-3.823790491608512e-05
aF0.8910069143863101
aassg56
(dp144
g20
(lp145
(lp146
F0.1994903513749846
aF-0.8649999999999998
aF1.4882238505431467e-07
aa(lp147
F0.1994903513749846
aF-0.9649999999999999
aF1.4882238505431467e-07
aa(lp148
F0.019490351374984602
aF-0.9649999999999999
aF1.4882238508207024e-07
aa(lp149
F0.019490351374984602
aF-0.8649999999999998
aF1.4882238508207024e-07
aa(lp150
F0.5111088085201498
aF-0.7093530222119352
aF0.15999155248547636
aa(lp151
F0.4819229163428693
aF-0.8049991601183912
aF0.15999273462093738
aa(lp152
F0.3097598681904344
aF-0.7524645543043366
aF0.1599861900832783
aa(lp153
F0.33894576036771484
aF-0.6568184163978805
aF0.15998500794781728
aasg42
(lp154
(lp155
F0.0
aF0.0
aF1.0
aa(lp156
F0.0
aF0.0
aF1.0
aa(lp157
F0.0
aF0.0
aF1.0
aa(lp158
F0.0
aF0.0
aF1.0
aa(lp159
F-3.125913844910809e-13
aF-3.7460091891103785e-08
aF0.9999999999999993
aa(lp160
F-3.125913844910809e-13
aF-3.7460091891103785e-08
aF0.9999999999999993
aa(lp161
F-3.125913844910809e-13
aF-3.7460091891103785e-08
aF0.9999999999999993
aa(lp162
F-3.125913844910809e-13
aF-3.7460091891103785e-08
aF0.9999999999999993
aassg76
(dp163
g4
g10
sg20
(lp164
(lp165
F0.1994903513749846
aF-0.8649999999999998
aF1.4882238505431467e-07
aa(lp166
F0.1994903513749846
aF-0.9649999999999999
aF1.4882238505431467e-07
aa(lp167
F0.019490351374984602
aF-0.9649999999999999
aF1.4882238508207024e-07
aa(lp168
F0.019490351374984602
aF-0.8649999999999998
aF1.4882238508207024e-07
aa(lp169
F0.5111088085201498
aF-0.7093530222119352
aF0.15999155248547636
aa(lp170
F0.4819229163428693
aF-0.8049991601183912
aF0.15999273462093738
aa(lp171
F0.3097598681904344
aF-0.7524645543043366
aF0.1599861900832783
aa(lp172
F0.33894576036771484
aF-0.6568184163978805
aF0.15998500794781728
aa(lp173
F0.4586632693195972
aF-1.1730246286306705
aF0.8570569650388116
aa(lp174
F0.42269107364132075
aF-1.1487699626827252
aF0.8365213297226746
aa(lp175
F0.4010748828616519
aF-1.1901797176647713
aF0.8254772141626185
aa(lp176
F0.43704707853992836
aF-1.2144343836127165
aF0.8460128494787555
aasg34
g5
(g6
(I0
tp177
g8
tp178
Rp179
(I1
(I3
tp180
g15
I00
S'\xa59%\x99\xd0\xe2\xc7?\xa7\x1c\x1c\xce\xdc\x1f\xea\xbf\xcc:\xb5\xcc\xdb2\xeb?'
p181
tp182
bsg41
g10
sg42
(lp183
(lp184
F0.0
aF0.0
aF1.0
aa(lp185
F0.0
aF0.0
aF1.0
aa(lp186
F0.0
aF0.0
aF1.0
aa(lp187
F0.0
aF0.0
aF1.0
aa(lp188
F-3.125913844910809e-13
aF-3.7460091891103785e-08
aF0.9999999999999993
aa(lp189
F-3.125913844910809e-13
aF-3.7460091891103785e-08
aF0.9999999999999993
aa(lp190
F-3.125913844910809e-13
aF-3.7460091891103785e-08
aF0.9999999999999993
aa(lp191
F-3.125913844910809e-13
aF-3.7460091891103785e-08
aF0.9999999999999993
aa(lp192
F-0.4539897323218329
aF-3.823790491608512e-05
aF0.8910069143863101
aa(lp193
F-0.4539897323218329
aF-3.823790491608512e-05
aF0.8910069143863101
aa(lp194
F-0.4539897323218329
aF-3.823790491608512e-05
aF0.8910069143863101
aa(lp195
F-0.4539897323218329
aF-3.823790491608512e-05
aF0.8910069143863101
aassa(dp196
g2
(dp197
g4
g10
sg20
(lp198
(lp199
F0.18533686083434495
aF-0.9565080260823312
aF0.010003998588364343
aa(lp200
F0.12509050298484062
aF-1.0363226634153733
aF0.009998227722538042
aa(lp201
F-0.018575844571120992
aF-0.9278792193722025
aF0.010003137907633936
aa(lp202
F0.04167051327838333
aF-0.8480645820391606
aF0.010008908773460237
aa(lp203
F0.5111088085201498
aF-0.7093530222119352
aF0.15999155248547636
aa(lp204
F0.4819229163428693
aF-0.8049991601183912
aF0.15999273462093738
aa(lp205
F0.3097598681904344
aF-0.7524645543043366
aF0.1599861900832783
aa(lp206
F0.33894576036771484
aF-0.6568184163978805
aF0.15998500794781728
aa(lp207
F0.49668509512916004
aF-1.1682593765263827
aF0.8748765854844137
aa(lp208
F0.4563215327872259
aF-1.1527905681580835
aF0.8540079774141169
aa(lp209
F0.4421209971169039
aF-1.198219706869061
aF0.8478000677268257
aa(lp210
F0.482484559458838
aF-1.2136885152373602
aF0.8686686757971224
aasg34
g5
(g6
(I0
tp211
g8
tp212
Rp213
(I1
(I3
tp214
g15
I00
S'\xcd\x82\xfe \xe4\xb8\xcb?[\x96<\x10\r\x1a\xea\xbf\xff{\x97\xdaU\xb7\xeb?'
p215
tp216
bsg41
g10
sg42
(lp217
(lp218
F0.0
aF-1.6437114481937523e-06
aF0.9999999999986492
aa(lp219
F0.0
aF-1.6437114481937523e-06
aF0.9999999999986492
aa(lp220
F0.0
aF-1.6437114481937523e-06
aF0.9999999999986492
aa(lp221
F0.0
aF-1.6437114481937523e-06
aF0.9999999999986492
aa(lp222
F-3.125913844910809e-13
aF-3.7460091891103785e-08
aF0.9999999999999993
aa(lp223
F-3.125913844910809e-13
aF-3.7460091891103785e-08
aF0.9999999999999993
aa(lp224
F-3.125913844910809e-13
aF-3.7460091891103785e-08
aF0.9999999999999993
aa(lp225
F-3.125913844910809e-13
aF-3.7460091891103785e-08
aF0.9999999999999993
aa(lp226
F-0.4539897323218329
aF-3.823790491608512e-05
aF0.8910069143863101
aa(lp227
F-0.4539897323218329
aF-3.823790491608512e-05
aF0.8910069143863101
aa(lp228
F-0.4539897323218329
aF-3.823790491608512e-05
aF0.8910069143863101
aa(lp229
F-0.4539897323218329
aF-3.823790491608512e-05
aF0.8910069143863101
aassg56
(dp230
g20
(lp231
(lp232
F0.5111088085201498
aF-0.7093530222119352
aF0.15999155248547636
aa(lp233
F0.4819229163428693
aF-0.8049991601183912
aF0.15999273462093738
aa(lp234
F0.3097598681904344
aF-0.7524645543043366
aF0.1599861900832783
aa(lp235
F0.33894576036771484
aF-0.6568184163978805
aF0.15998500794781728
aa(lp236
F0.49668509512916004
aF-1.1682593765263827
aF0.8748765854844137
aa(lp237
F0.4563215327872259
aF-1.1527905681580835
aF0.8540079774141169
aa(lp238
F0.4421209971169039
aF-1.198219706869061
aF0.8478000677268257
aa(lp239
F0.482484559458838
aF-1.2136885152373602
aF0.8686686757971224
aasg42
(lp240
(lp241
F-3.125913844910809e-13
aF-3.7460091891103785e-08
aF0.9999999999999993
aa(lp242
F-3.125913844910809e-13
aF-3.7460091891103785e-08
aF0.9999999999999993
aa(lp243
F-3.125913844910809e-13
aF-3.7460091891103785e-08
aF0.9999999999999993
aa(lp244
F-3.125913844910809e-13
aF-3.7460091891103785e-08
aF0.9999999999999993
aa(lp245
F-0.4539897323218329
aF-3.823790491608512e-05
aF0.8910069143863101
aa(lp246
F-0.4539897323218329
aF-3.823790491608512e-05
aF0.8910069143863101
aa(lp247
F-0.4539897323218329
aF-3.823790491608512e-05
aF0.8910069143863101
aa(lp248
F-0.4539897323218329
aF-3.823790491608512e-05
aF0.8910069143863101
aassg76
(dp249
g4
g10
sg20
(lp250
(lp251
F0.1994903513749846
aF-0.8649999999999998
aF1.4882238505431467e-07
aa(lp252
F0.1994903513749846
aF-0.9649999999999999
aF1.4882238505431467e-07
aa(lp253
F0.019490351374984602
aF-0.9649999999999999
aF1.4882238508207024e-07
aa(lp254
F0.019490351374984602
aF-0.8649999999999998
aF1.4882238508207024e-07
aa(lp255
F0.5111088085201498
aF-0.7093530222119352
aF0.15999155248547636
aa(lp256
F0.4819229163428693
aF-0.8049991601183912
aF0.15999273462093738
aa(lp257
F0.3097598681904344
aF-0.7524645543043366
aF0.1599861900832783
aa(lp258
F0.33894576036771484
aF-0.6568184163978805
aF0.15998500794781728
aa(lp259
F0.49668509512916004
aF-1.1682593765263827
aF0.8748765854844137
aa(lp260
F0.4563215327872259
aF-1.1527905681580835
aF0.8540079774141169
aa(lp261
F0.4421209971169039
aF-1.198219706869061
aF0.8478000677268257
aa(lp262
F0.482484559458838
aF-1.2136885152373602
aF0.8686686757971224
aasg34
g5
(g6
(I0
tp263
g8
tp264
Rp265
(I1
(I3
tp266
g15
I00
S'\x81\xa3\x07M\x89P\xcc?\x80\xd1\x1f\x01\xb4\x02\xea\xbf\xb4\xe5qd\xca\xab\xeb?'
p267
tp268
bsg41
g10
sg42
(lp269
(lp270
F0.0
aF0.0
aF1.0
aa(lp271
F0.0
aF0.0
aF1.0
aa(lp272
F0.0
aF0.0
aF1.0
aa(lp273
F0.0
aF0.0
aF1.0
aa(lp274
F-3.125913844910809e-13
aF-3.7460091891103785e-08
aF0.9999999999999993
aa(lp275
F-3.125913844910809e-13
aF-3.7460091891103785e-08
aF0.9999999999999993
aa(lp276
F-3.125913844910809e-13
aF-3.7460091891103785e-08
aF0.9999999999999993
aa(lp277
F-3.125913844910809e-13
aF-3.7460091891103785e-08
aF0.9999999999999993
aa(lp278
F-0.4539897323218329
aF-3.823790491608512e-05
aF0.8910069143863101
aa(lp279
F-0.4539897323218329
aF-3.823790491608512e-05
aF0.8910069143863101
aa(lp280
F-0.4539897323218329
aF-3.823790491608512e-05
aF0.8910069143863101
aa(lp281
F-0.4539897323218329
aF-3.823790491608512e-05
aF0.8910069143863101
aassa(dp282
g2
(dp283
g4
g10
sg20
(lp284
(lp285
F0.49970892462838085
aF-0.9659020414330787
aF0.16000855417551418
aa(lp286
F0.4823322721338994
aF-1.0643807292147687
aF0.16000760520285914
aa(lp287
F0.30507063413451163
aF-1.033102754752178
aF0.16001031632784657
aa(lp288
F0.3224472866289931
aF-0.9346240669704879
aF0.1600112653005016
aa(lp289
F0.5111088085201498
aF-0.7093530222119352
aF0.15999155248547636
aa(lp290
F0.4819229163428693
aF-0.8049991601183912
aF0.15999273462093738
aa(lp291
F0.3097598681904344
aF-0.7524645543043366
aF0.1599861900832783
aa(lp292
F0.33894576036771484
aF-0.6568184163978805
aF0.15998500794781728
aa(lp293
F0.49668509512916004
aF-1.1682593765263827
aF0.8748765854844137
aa(lp294
F0.4563215327872259
aF-1.1527905681580835
aF0.8540079774141169
aa(lp295
F0.4421209971169039
aF-1.198219706869061
aF0.8478000677268257
aa(lp296
F0.482484559458838
aF-1.2136885152373602
aF0.8686686757971224
aasg34
g5
(g6
(I0
tp297
g8
tp298
Rp299
(I1
(I3
tp300
g15
I00
S',\x1430\x1c\xaf\xd7?JoE\xe0\xbd\xd6\xe9\xbfs\x04\xbb\x06 \xb2\xed?'
p301
tp302
bsg41
g10
sg42
(lp303
(lp304
F-3.125913844910809e-13
aF-3.7460091891103785e-08
aF0.9999999999999993
aa(lp305
F-3.125913844910809e-13
aF-3.7460091891103785e-08
aF0.9999999999999993
aa(lp306
F-3.125913844910809e-13
aF-3.7460091891103785e-08
aF0.9999999999999993
aa(lp307
F-3.125913844910809e-13
aF-3.7460091891103785e-08
aF0.9999999999999993
aa(lp308
F-3.125913844910809e-13
aF-3.7460091891103785e-08
aF0.9999999999999993
aa(lp309
F-3.125913844910809e-13
aF-3.7460091891103785e-08
aF0.9999999999999993
aa(lp310
F-3.125913844910809e-13
aF-3.7460091891103785e-08
aF0.9999999999999993
aa(lp311
F-3.125913844910809e-13
aF-3.7460091891103785e-08
aF0.9999999999999993
aa(lp312
F-0.4539897323218329
aF-3.823790491608512e-05
aF0.8910069143863101
aa(lp313
F-0.4539897323218329
aF-3.823790491608512e-05
aF0.8910069143863101
aa(lp314
F-0.4539897323218329
aF-3.823790491608512e-05
aF0.8910069143863101
aa(lp315
F-0.4539897323218329
aF-3.823790491608512e-05
aF0.8910069143863101
aassg56
(dp316
g20
(lp317
(lp318
F0.5111088085201498
aF-0.7093530222119352
aF0.15999155248547636
aa(lp319
F0.4819229163428693
aF-0.8049991601183912
aF0.15999273462093738
aa(lp320
F0.3097598681904344
aF-0.7524645543043366
aF0.1599861900832783
aa(lp321
F0.33894576036771484
aF-0.6568184163978805
aF0.15998500794781728
aa(lp322
F0.49668509512916004
aF-1.1682593765263827
aF0.8748765854844137
aa(lp323
F0.4563215327872259
aF-1.1527905681580835
aF0.8540079774141169
aa(lp324
F0.4421209971169039
aF-1.198219706869061
aF0.8478000677268257
aa(lp325
F0.482484559458838
aF-1.2136885152373602
aF0.8686686757971224
aasg42
(lp326
(lp327
F-3.125913844910809e-13
aF-3.7460091891103785e-08
aF0.9999999999999993
aa(lp328
F-3.125913844910809e-13
aF-3.7460091891103785e-08
aF0.9999999999999993
aa(lp329
F-3.125913844910809e-13
aF-3.7460091891103785e-08
aF0.9999999999999993
aa(lp330
F-3.125913844910809e-13
aF-3.7460091891103785e-08
aF0.9999999999999993
aa(lp331
F-0.4539897323218329
aF-3.823790491608512e-05
aF0.8910069143863101
aa(lp332
F-0.4539897323218329
aF-3.823790491608512e-05
aF0.8910069143863101
aa(lp333
F-0.4539897323218329
aF-3.823790491608512e-05
aF0.8910069143863101
aa(lp334
F-0.4539897323218329
aF-3.823790491608512e-05
aF0.8910069143863101
aassg76
(dp335
g4
g10
sg20
(lp336
(lp337
F0.18533686083434495
aF-0.9565080260823312
aF0.010003998588364343
aa(lp338
F0.12509050298484062
aF-1.0363226634153733
aF0.009998227722538042
aa(lp339
F-0.018575844571120992
aF-0.9278792193722025
aF0.010003137907633936
aa(lp340
F0.04167051327838333
aF-0.8480645820391606
aF0.010008908773460237
aa(lp341
F0.5111088085201498
aF-0.7093530222119352
aF0.15999155248547636
aa(lp342
F0.4819229163428693
aF-0.8049991601183912
aF0.15999273462093738
aa(lp343
F0.3097598681904344
aF-0.7524645543043366
aF0.1599861900832783
aa(lp344
F0.33894576036771484
aF-0.6568184163978805
aF0.15998500794781728
aa(lp345
F0.49668509512916004
aF-1.1682593765263827
aF0.8748765854844137
aa(lp346
F0.4563215327872259
aF-1.1527905681580835
aF0.8540079774141169
aa(lp347
F0.4421209971169039
aF-1.198219706869061
aF0.8478000677268257
aa(lp348
F0.482484559458838
aF-1.2136885152373602
aF0.8686686757971224
aasg34
g5
(g6
(I0
tp349
g8
tp350
Rp351
(I1
(I3
tp352
g15
I00
S'\xcd\x82\xfe \xe4\xb8\xcb?[\x96<\x10\r\x1a\xea\xbf\xff{\x97\xdaU\xb7\xeb?'
p353
tp354
bsg41
g10
sg42
(lp355
(lp356
F0.0
aF-1.6437114481937523e-06
aF0.9999999999986492
aa(lp357
F0.0
aF-1.6437114481937523e-06
aF0.9999999999986492
aa(lp358
F0.0
aF-1.6437114481937523e-06
aF0.9999999999986492
aa(lp359
F0.0
aF-1.6437114481937523e-06
aF0.9999999999986492
aa(lp360
F-3.125913844910809e-13
aF-3.7460091891103785e-08
aF0.9999999999999993
aa(lp361
F-3.125913844910809e-13
aF-3.7460091891103785e-08
aF0.9999999999999993
aa(lp362
F-3.125913844910809e-13
aF-3.7460091891103785e-08
aF0.9999999999999993
aa(lp363
F-3.125913844910809e-13
aF-3.7460091891103785e-08
aF0.9999999999999993
aa(lp364
F-0.4539897323218329
aF-3.823790491608512e-05
aF0.8910069143863101
aa(lp365
F-0.4539897323218329
aF-3.823790491608512e-05
aF0.8910069143863101
aa(lp366
F-0.4539897323218329
aF-3.823790491608512e-05
aF0.8910069143863101
aa(lp367
F-0.4539897323218329
aF-3.823790491608512e-05
aF0.8910069143863101
aassa(dp368
g2
(dp369
g4
g10
sg20
(lp370
(lp371
F0.49970892462838085
aF-0.9659020414330787
aF0.16000855417551418
aa(lp372
F0.4823322721338994
aF-1.0643807292147687
aF0.16000760520285914
aa(lp373
F0.30507063413451163
aF-1.033102754752178
aF0.16001031632784657
aa(lp374
F0.3224472866289931
aF-0.9346240669704879
aF0.1600112653005016
aa(lp375
F0.5111088085201498
aF-0.7093530222119352
aF0.15999155248547636
aa(lp376
F0.4819229163428693
aF-0.8049991601183912
aF0.15999273462093738
aa(lp377
F0.3097598681904344
aF-0.7524645543043366
aF0.1599861900832783
aa(lp378
F0.33894576036771484
aF-0.6568184163978805
aF0.15998500794781728
aa(lp379
F0.6808256705560869
aF-1.1688314592706717
aF0.9686744927075797
aa(lp380
F0.6403755678153007
aF-1.1535150148545172
aF0.9478611383592879
aa(lp381
F0.6263364473375556
aF-1.1989973321956695
aF0.9416755174713365
aa(lp382
F0.6667865500783419
aF-1.2143137766118237
aF0.9624888718196283
aasg34
g5
(g6
(I0
tp383
g8
tp384
Rp385
(I1
(I3
tp386
g15
I00
S'\x01\x08\xc5\x91\x94,\xda?\xa7\x06\xaa\xf4:\xa8\xe9\xbfa\x8c\xba\xf0F%\xee?'
p387
tp388
bsg41
g10
sg42
(lp389
(lp390
F-3.125913844910809e-13
aF-3.7460091891103785e-08
aF0.9999999999999993
aa(lp391
F-3.125913844910809e-13
aF-3.7460091891103785e-08
aF0.9999999999999993
aa(lp392
F-3.125913844910809e-13
aF-3.7460091891103785e-08
aF0.9999999999999993
aa(lp393
F-3.125913844910809e-13
aF-3.7460091891103785e-08
aF0.9999999999999993
aa(lp394
F-3.125913844910809e-13
aF-3.7460091891103785e-08
aF0.9999999999999993
aa(lp395
F-3.125913844910809e-13
aF-3.7460091891103785e-08
aF0.9999999999999993
aa(lp396
F-3.125913844910809e-13
aF-3.7460091891103785e-08
aF0.9999999999999993
aa(lp397
F-3.125913844910809e-13
aF-3.7460091891103785e-08
aF0.9999999999999993
aa(lp398
F-0.4539897323218329
aF-3.823790491608512e-05
aF0.8910069143863101
aa(lp399
F-0.4539897323218329
aF-3.823790491608512e-05
aF0.8910069143863101
aa(lp400
F-0.4539897323218329
aF-3.823790491608512e-05
aF0.8910069143863101
aa(lp401
F-0.4539897323218329
aF-3.823790491608512e-05
aF0.8910069143863101
aassg56
(dp402
g20
(lp403
(lp404
F0.49970892462838085
aF-0.9659020414330787
aF0.16000855417551418
aa(lp405
F0.4823322721338994
aF-1.0643807292147687
aF0.16000760520285914
aa(lp406
F0.30507063413451163
aF-1.033102754752178
aF0.16001031632784657
aa(lp407
F0.3224472866289931
aF-0.9346240669704879
aF0.1600112653005016
aa(lp408
F0.5111088085201498
aF-0.7093530222119352
aF0.15999155248547636
aa(lp409
F0.4819229163428693
aF-0.8049991601183912
aF0.15999273462093738
aa(lp410
F0.3097598681904344
aF-0.7524645543043366
aF0.1599861900832783
aa(lp411
F0.33894576036771484
aF-0.6568184163978805
aF0.15998500794781728
aasg42
(lp412
(lp413
F-3.125913844910809e-13
aF-3.7460091891103785e-08
aF0.9999999999999993
aa(lp414
F-3.125913844910809e-13
aF-3.7460091891103785e-08
aF0.9999999999999993
aa(lp415
F-3.125913844910809e-13
aF-3.7460091891103785e-08
aF0.9999999999999993
aa(lp416
F-3.125913844910809e-13
aF-3.7460091891103785e-08
aF0.9999999999999993
aa(lp417
F-3.125913844910809e-13
aF-3.7460091891103785e-08
aF0.9999999999999993
aa(lp418
F-3.125913844910809e-13
aF-3.7460091891103785e-08
aF0.9999999999999993
aa(lp419
F-3.125913844910809e-13
aF-3.7460091891103785e-08
aF0.9999999999999993
aa(lp420
F-3.125913844910809e-13
aF-3.7460091891103785e-08
aF0.9999999999999993
aassg76
(dp421
g4
g10
sg20
(lp422
(lp423
F0.49970892462838085
aF-0.9659020414330787
aF0.16000855417551418
aa(lp424
F0.4823322721338994
aF-1.0643807292147687
aF0.16000760520285914
aa(lp425
F0.30507063413451163
aF-1.033102754752178
aF0.16001031632784657
aa(lp426
F0.3224472866289931
aF-0.9346240669704879
aF0.1600112653005016
aa(lp427
F0.5111088085201498
aF-0.7093530222119352
aF0.15999155248547636
aa(lp428
F0.4819229163428693
aF-0.8049991601183912
aF0.15999273462093738
aa(lp429
F0.3097598681904344
aF-0.7524645543043366
aF0.1599861900832783
aa(lp430
F0.33894576036771484
aF-0.6568184163978805
aF0.15998500794781728
aa(lp431
F0.49668509512916004
aF-1.1682593765263827
aF0.8748765854844137
aa(lp432
F0.4563215327872259
aF-1.1527905681580835
aF0.8540079774141169
aa(lp433
F0.4421209971169039
aF-1.198219706869061
aF0.8478000677268257
aa(lp434
F0.482484559458838
aF-1.2136885152373602
aF0.8686686757971224
aasg34
g5
(g6
(I0
tp435
g8
tp436
Rp437
(I1
(I3
tp438
g15
I00
S',\x1430\x1c\xaf\xd7?JoE\xe0\xbd\xd6\xe9\xbfs\x04\xbb\x06 \xb2\xed?'
p439
tp440
bsg41
g10
sg42
(lp441
(lp442
F-3.125913844910809e-13
aF-3.7460091891103785e-08
aF0.9999999999999993
aa(lp443
F-3.125913844910809e-13
aF-3.7460091891103785e-08
aF0.9999999999999993
aa(lp444
F-3.125913844910809e-13
aF-3.7460091891103785e-08
aF0.9999999999999993
aa(lp445
F-3.125913844910809e-13
aF-3.7460091891103785e-08
aF0.9999999999999993
aa(lp446
F-3.125913844910809e-13
aF-3.7460091891103785e-08
aF0.9999999999999993
aa(lp447
F-3.125913844910809e-13
aF-3.7460091891103785e-08
aF0.9999999999999993
aa(lp448
F-3.125913844910809e-13
aF-3.7460091891103785e-08
aF0.9999999999999993
aa(lp449
F-3.125913844910809e-13
aF-3.7460091891103785e-08
aF0.9999999999999993
aa(lp450
F-0.4539897323218329
aF-3.823790491608512e-05
aF0.8910069143863101
aa(lp451
F-0.4539897323218329
aF-3.823790491608512e-05
aF0.8910069143863101
aa(lp452
F-0.4539897323218329
aF-3.823790491608512e-05
aF0.8910069143863101
aa(lp453
F-0.4539897323218329
aF-3.823790491608512e-05
aF0.8910069143863101
aassa(dp454
g2
(dp455
g4
g10
sg20
(lp456
(lp457
F0.7974579384612437
aF-0.8430542056572444
aF0.30999323320330563
aa(lp458
F0.794106873350222
aF-0.9429980416508713
aF0.30999015067198177
aa(lp459
F0.6142079684796455
aF-0.9369661244192996
aF0.30998921101100124
aa(lp460
F0.6175590335906672
aF-0.8370222884256726
aF0.30999229354232516
aa(lp461
F0.5111088085201498
aF-0.7093530222119352
aF0.15999155248547636
aa(lp462
F0.4819229163428693
aF-0.8049991601183912
aF0.15999273462093738
aa(lp463
F0.3097598681904344
aF-0.7524645543043366
aF0.1599861900832783
aa(lp464
F0.33894576036771484
aF-0.6568184163978805
aF0.15998500794781728
aa(lp465
F0.6808256705560869
aF-1.1688314592706717
aF0.9686744927075797
aa(lp466
F0.6403755678153007
aF-1.1535150148545172
aF0.9478611383592879
aa(lp467
F0.6263364473375556
aF-1.1989973321956695
aF0.9416755174713365
aa(lp468
F0.6667865500783419
aF-1.2143137766118237
aF0.9624888718196283
aasg34
g5
(g6
(I0
tp469
g8
tp470
Rp471
(I1
(I3
tp472
g15
I00
S'\x8apN\x7f\x1f\x87\xde?\xd4\xbb\xff\x07\xc7@\xe9\xbf\x9f\x1d\xdc\xf1T*\xef?'
p473
tp474
bsg41
g10
sg42
(lp475
(lp476
F-3.12591291331611e-13
aF-3.7460091891103785e-08
aF0.9999999999999993
aa(lp477
F-3.12591291331611e-13
aF-3.7460091891103785e-08
aF0.9999999999999993
aa(lp478
F-3.12591291331611e-13
aF-3.7460091891103785e-08
aF0.9999999999999993
aa(lp479
F-3.12591291331611e-13
aF-3.7460091891103785e-08
aF0.9999999999999993
aa(lp480
F-3.125913844910809e-13
aF-3.7460091891103785e-08
aF0.9999999999999993
aa(lp481
F-3.125913844910809e-13
aF-3.7460091891103785e-08
aF0.9999999999999993
aa(lp482
F-3.125913844910809e-13
aF-3.7460091891103785e-08
aF0.9999999999999993
aa(lp483
F-3.125913844910809e-13
aF-3.7460091891103785e-08
aF0.9999999999999993
aa(lp484
F-0.4539897323218329
aF-3.823790491608512e-05
aF0.8910069143863101
aa(lp485
F-0.4539897323218329
aF-3.823790491608512e-05
aF0.8910069143863101
aa(lp486
F-0.4539897323218329
aF-3.823790491608512e-05
aF0.8910069143863101
aa(lp487
F-0.4539897323218329
aF-3.823790491608512e-05
aF0.8910069143863101
aassg56
(dp488
g20
(lp489
(lp490
F0.5111088085201498
aF-0.7093530222119352
aF0.15999155248547636
aa(lp491
F0.4819229163428693
aF-0.8049991601183912
aF0.15999273462093738
aa(lp492
F0.3097598681904344
aF-0.7524645543043366
aF0.1599861900832783
aa(lp493
F0.33894576036771484
aF-0.6568184163978805
aF0.15998500794781728
aa(lp494
F0.6808256705560869
aF-1.1688314592706717
aF0.9686744927075797
aa(lp495
F0.6403755678153007
aF-1.1535150148545172
aF0.9478611383592879
aa(lp496
F0.6263364473375556
aF-1.1989973321956695
aF0.9416755174713365
aa(lp497
F0.6667865500783419
aF-1.2143137766118237
aF0.9624888718196283
aasg42
(lp498
(lp499
F-3.125913844910809e-13
aF-3.7460091891103785e-08
aF0.9999999999999993
aa(lp500
F-3.125913844910809e-13
aF-3.7460091891103785e-08
aF0.9999999999999993
aa(lp501
F-3.125913844910809e-13
aF-3.7460091891103785e-08
aF0.9999999999999993
aa(lp502
F-3.125913844910809e-13
aF-3.7460091891103785e-08
aF0.9999999999999993
aa(lp503
F-0.4539897323218329
aF-3.823790491608512e-05
aF0.8910069143863101
aa(lp504
F-0.4539897323218329
aF-3.823790491608512e-05
aF0.8910069143863101
aa(lp505
F-0.4539897323218329
aF-3.823790491608512e-05
aF0.8910069143863101
aa(lp506
F-0.4539897323218329
aF-3.823790491608512e-05
aF0.8910069143863101
aassg76
(dp507
g4
g10
sg20
(lp508
(lp509
F0.49970892462838085
aF-0.9659020414330787
aF0.16000855417551418
aa(lp510
F0.4823322721338994
aF-1.0643807292147687
aF0.16000760520285914
aa(lp511
F0.30507063413451163
aF-1.033102754752178
aF0.16001031632784657
aa(lp512
F0.3224472866289931
aF-0.9346240669704879
aF0.1600112653005016
aa(lp513
F0.5111088085201498
aF-0.7093530222119352
aF0.15999155248547636
aa(lp514
F0.4819229163428693
aF-0.8049991601183912
aF0.15999273462093738
aa(lp515
F0.3097598681904344
aF-0.7524645543043366
aF0.1599861900832783
aa(lp516
F0.33894576036771484
aF-0.6568184163978805
aF0.15998500794781728
aa(lp517
F0.6808256705560869
aF-1.1688314592706717
aF0.9686744927075797
aa(lp518
F0.6403755678153007
aF-1.1535150148545172
aF0.9478611383592879
aa(lp519
F0.6263364473375556
aF-1.1989973321956695
aF0.9416755174713365
aa(lp520
F0.6667865500783419
aF-1.2143137766118237
aF0.9624888718196283
aasg34
g5
(g6
(I0
tp521
g8
tp522
Rp523
(I1
(I3
tp524
g15
I00
S'\x01\x08\xc5\x91\x94,\xda?\xa7\x06\xaa\xf4:\xa8\xe9\xbfa\x8c\xba\xf0F%\xee?'
p525
tp526
bsg41
g10
sg42
(lp527
(lp528
F-3.125913844910809e-13
aF-3.7460091891103785e-08
aF0.9999999999999993
aa(lp529
F-3.125913844910809e-13
aF-3.7460091891103785e-08
aF0.9999999999999993
aa(lp530
F-3.125913844910809e-13
aF-3.7460091891103785e-08
aF0.9999999999999993
aa(lp531
F-3.125913844910809e-13
aF-3.7460091891103785e-08
aF0.9999999999999993
aa(lp532
F-3.125913844910809e-13
aF-3.7460091891103785e-08
aF0.9999999999999993
aa(lp533
F-3.125913844910809e-13
aF-3.7460091891103785e-08
aF0.9999999999999993
aa(lp534
F-3.125913844910809e-13
aF-3.7460091891103785e-08
aF0.9999999999999993
aa(lp535
F-3.125913844910809e-13
aF-3.7460091891103785e-08
aF0.9999999999999993
aa(lp536
F-0.4539897323218329
aF-3.823790491608512e-05
aF0.8910069143863101
aa(lp537
F-0.4539897323218329
aF-3.823790491608512e-05
aF0.8910069143863101
aa(lp538
F-0.4539897323218329
aF-3.823790491608512e-05
aF0.8910069143863101
aa(lp539
F-0.4539897323218329
aF-3.823790491608512e-05
aF0.8910069143863101
aassa(dp540
g2
(dp541
g4
g10
sg20
(lp542
(lp543
F0.7974579384612437
aF-0.8430542056572444
aF0.30999323320330563
aa(lp544
F0.794106873350222
aF-0.9429980416508713
aF0.30999015067198177
aa(lp545
F0.6142079684796455
aF-0.9369661244192996
aF0.30998921101100124
aa(lp546
F0.6175590335906672
aF-0.8370222884256726
aF0.30999229354232516
aa(lp547
F0.5111088085201498
aF-0.7093530222119352
aF0.15999155248547636
aa(lp548
F0.4819229163428693
aF-0.8049991601183912
aF0.15999273462093738
aa(lp549
F0.3097598681904344
aF-0.7524645543043366
aF0.1599861900832783
aa(lp550
F0.33894576036771484
aF-0.6568184163978805
aF0.15998500794781728
aa(lp551
F0.6386957301553954
aF-1.14984713888534
aF0.9474988190301094
aa(lp552
F0.6049003894425576
aF-1.1793810681477646
aF0.930480535664995
aa(lp553
F0.6312330818278151
aF-1.2172194174921536
aF0.9438539657306981
aa(lp554
F0.6650284225406529
aF-1.187685488229729
aF0.9608722490958125
aasg34
g5
(g6
(I0
tp555
g8
tp556
Rp557
(I1
(I3
tp558
g15
I00
S'\xe1jp\x9e\xaeR\xe0?qL\x91kg3\xe9\xbfP\x7frt*\xb2\xef?'
p559
tp560
bsg41
g10
sg42
(lp561
(lp562
F-3.12591291331611e-13
aF-3.7460091891103785e-08
aF0.9999999999999993
aa(lp563
F-3.12591291331611e-13
aF-3.7460091891103785e-08
aF0.9999999999999993
aa(lp564
F-3.12591291331611e-13
aF-3.7460091891103785e-08
aF0.9999999999999993
aa(lp565
F-3.12591291331611e-13
aF-3.7460091891103785e-08
aF0.9999999999999993
aa(lp566
F-3.125913844910809e-13
aF-3.7460091891103785e-08
aF0.9999999999999993
aa(lp567
F-3.125913844910809e-13
aF-3.7460091891103785e-08
aF0.9999999999999993
aa(lp568
F-3.125913844910809e-13
aF-3.7460091891103785e-08
aF0.9999999999999993
aa(lp569
F-3.125913844910809e-13
aF-3.7460091891103785e-08
aF0.9999999999999993
aa(lp570
F-0.4539897323218329
aF-3.823790491608512e-05
aF0.8910069143863101
aa(lp571
F-0.4539897323218329
aF-3.823790491608512e-05
aF0.8910069143863101
aa(lp572
F-0.4539897323218329
aF-3.823790491608512e-05
aF0.8910069143863101
aa(lp573
F-0.4539897323218329
aF-3.823790491608512e-05
aF0.8910069143863101
aassg56
(dp574
g20
(lp575
(lp576
F0.7974579384612437
aF-0.8430542056572444
aF0.30999323320330563
aa(lp577
F0.794106873350222
aF-0.9429980416508713
aF0.30999015067198177
aa(lp578
F0.6142079684796455
aF-0.9369661244192996
aF0.30998921101100124
aa(lp579
F0.6175590335906672
aF-0.8370222884256726
aF0.30999229354232516
aa(lp580
F0.5111088085201498
aF-0.7093530222119352
aF0.15999155248547636
aa(lp581
F0.4819229163428693
aF-0.8049991601183912
aF0.15999273462093738
aa(lp582
F0.3097598681904344
aF-0.7524645543043366
aF0.1599861900832783
aa(lp583
F0.33894576036771484
aF-0.6568184163978805
aF0.15998500794781728
aasg42
(lp584
(lp585
F-3.12591291331611e-13
aF-3.7460091891103785e-08
aF0.9999999999999993
aa(lp586
F-3.12591291331611e-13
aF-3.7460091891103785e-08
aF0.9999999999999993
aa(lp587
F-3.12591291331611e-13
aF-3.7460091891103785e-08
aF0.9999999999999993
aa(lp588
F-3.12591291331611e-13
aF-3.7460091891103785e-08
aF0.9999999999999993
aa(lp589
F-3.125913844910809e-13
aF-3.7460091891103785e-08
aF0.9999999999999993
aa(lp590
F-3.125913844910809e-13
aF-3.7460091891103785e-08
aF0.9999999999999993
aa(lp591
F-3.125913844910809e-13
aF-3.7460091891103785e-08
aF0.9999999999999993
aa(lp592
F-3.125913844910809e-13
aF-3.7460091891103785e-08
aF0.9999999999999993
aassg76
(dp593
g4
g10
sg20
(lp594
(lp595
F0.7974579384612437
aF-0.8430542056572444
aF0.30999323320330563
aa(lp596
F0.794106873350222
aF-0.9429980416508713
aF0.30999015067198177
aa(lp597
F0.6142079684796455
aF-0.9369661244192996
aF0.30998921101100124
aa(lp598
F0.6175590335906672
aF-0.8370222884256726
aF0.30999229354232516
aa(lp599
F0.5111088085201498
aF-0.7093530222119352
aF0.15999155248547636
aa(lp600
F0.4819229163428693
aF-0.8049991601183912
aF0.15999273462093738
aa(lp601
F0.3097598681904344
aF-0.7524645543043366
aF0.1599861900832783
aa(lp602
F0.33894576036771484
aF-0.6568184163978805
aF0.15998500794781728
aa(lp603
F0.6808256705560869
aF-1.1688314592706717
aF0.9686744927075797
aa(lp604
F0.6403755678153007
aF-1.1535150148545172
aF0.9478611383592879
aa(lp605
F0.6263364473375556
aF-1.1989973321956695
aF0.9416755174713365
aa(lp606
F0.6667865500783419
aF-1.2143137766118237
aF0.9624888718196283
aasg34
g5
(g6
(I0
tp607
g8
tp608
Rp609
(I1
(I3
tp610
g15
I00
S'\x8apN\x7f\x1f\x87\xde?\xd4\xbb\xff\x07\xc7@\xe9\xbf\x9f\x1d\xdc\xf1T*\xef?'
p611
tp612
bsg41
g10
sg42
(lp613
(lp614
F-3.12591291331611e-13
aF-3.7460091891103785e-08
aF0.9999999999999993
aa(lp615
F-3.12591291331611e-13
aF-3.7460091891103785e-08
aF0.9999999999999993
aa(lp616
F-3.12591291331611e-13
aF-3.7460091891103785e-08
aF0.9999999999999993
aa(lp617
F-3.12591291331611e-13
aF-3.7460091891103785e-08
aF0.9999999999999993
aa(lp618
F-3.125913844910809e-13
aF-3.7460091891103785e-08
aF0.9999999999999993
aa(lp619
F-3.125913844910809e-13
aF-3.7460091891103785e-08
aF0.9999999999999993
aa(lp620
F-3.125913844910809e-13
aF-3.7460091891103785e-08
aF0.9999999999999993
aa(lp621
F-3.125913844910809e-13
aF-3.7460091891103785e-08
aF0.9999999999999993
aa(lp622
F-0.4539897323218329
aF-3.823790491608512e-05
aF0.8910069143863101
aa(lp623
F-0.4539897323218329
aF-3.823790491608512e-05
aF0.8910069143863101
aa(lp624
F-0.4539897323218329
aF-3.823790491608512e-05
aF0.8910069143863101
aa(lp625
F-0.4539897323218329
aF-3.823790491608512e-05
aF0.8910069143863101
aassa(dp626
g2
(dp627
g4
g10
sg20
(lp628
(lp629
F0.8899212511926758
aF-0.8315159805585027
aF0.30999628460759204
aa(lp630
F0.8863056578118186
aF-0.9314505965583992
aF0.3099932088896423
aa(lp631
F0.7064233489283033
aF-0.9249425284534092
aF0.30999267542036074
aa(lp632
F0.7100389423091605
aF-0.8250079124535126
aF0.30999575113831046
aa(lp633
F0.5111088085201498
aF-0.7093530222119352
aF0.15999155248547636
aa(lp634
F0.4819229163428693
aF-0.8049991601183912
aF0.15999273462093738
aa(lp635
F0.3097598681904344
aF-0.7524645543043366
aF0.1599861900832783
aa(lp636
F0.33894576036771484
aF-0.6568184163978805
aF0.15998500794781728
aa(lp637
F0.6386957301553954
aF-1.14984713888534
aF0.9474988190301094
aa(lp638
F0.6049003894425576
aF-1.1793810681477646
aF0.930480535664995
aa(lp639
F0.6312330818278151
aF-1.2172194174921536
aF0.9438539657306981
aa(lp640
F0.6650284225406529
aF-1.187685488229729
aF0.9608722490958125
aasg34
g5
(g6
(I0
tp641
g8
tp642
Rp643
(I1
(I3
tp644
g15
I00
S"\x16bl\xc7\xb7\xf5\xe1?\x99'\x11+O\xfd\xe8\xbf\xe4\x1d_s\n\x1a\xf0?"
p645
tp646
bsg41
g10
sg42
(lp647
(lp648
F0.0
aF-3.7460111536732874e-08
aF0.9999999999999993
aa(lp649
F0.0
aF-3.7460111536732874e-08
aF0.9999999999999993
aa(lp650
F0.0
aF-3.7460111536732874e-08
aF0.9999999999999993
aa(lp651
F0.0
aF-3.7460111536732874e-08
aF0.9999999999999993
aa(lp652
F-3.125913844910809e-13
aF-3.7460091891103785e-08
aF0.9999999999999993
aa(lp653
F-3.125913844910809e-13
aF-3.7460091891103785e-08
aF0.9999999999999993
aa(lp654
F-3.125913844910809e-13
aF-3.7460091891103785e-08
aF0.9999999999999993
aa(lp655
F-3.125913844910809e-13
aF-3.7460091891103785e-08
aF0.9999999999999993
aa(lp656
F-0.4539897323218329
aF-3.823790491608512e-05
aF0.8910069143863101
aa(lp657
F-0.4539897323218329
aF-3.823790491608512e-05
aF0.8910069143863101
aa(lp658
F-0.4539897323218329
aF-3.823790491608512e-05
aF0.8910069143863101
aa(lp659
F-0.4539897323218329
aF-3.823790491608512e-05
aF0.8910069143863101
aassg56
(dp660
g20
(lp661
(lp662
F0.5111088085201498
aF-0.7093530222119352
aF0.15999155248547636
aa(lp663
F0.4819229163428693
aF-0.8049991601183912
aF0.15999273462093738
aa(lp664
F0.3097598681904344
aF-0.7524645543043366
aF0.1599861900832783
aa(lp665
F0.33894576036771484
aF-0.6568184163978805
aF0.15998500794781728
aa(lp666
F0.6386957301553954
aF-1.14984713888534
aF0.9474988190301094
aa(lp667
F0.6049003894425576
aF-1.1793810681477646
aF0.930480535664995
aa(lp668
F0.6312330818278151
aF-1.2172194174921536
aF0.9438539657306981
aa(lp669
F0.6650284225406529
aF-1.187685488229729
aF0.9608722490958125
aasg42
(lp670
(lp671
F-3.125913844910809e-13
aF-3.7460091891103785e-08
aF0.9999999999999993
aa(lp672
F-3.125913844910809e-13
aF-3.7460091891103785e-08
aF0.9999999999999993
aa(lp673
F-3.125913844910809e-13
aF-3.7460091891103785e-08
aF0.9999999999999993
aa(lp674
F-3.125913844910809e-13
aF-3.7460091891103785e-08
aF0.9999999999999993
aa(lp675
F-0.4539897323218329
aF-3.823790491608512e-05
aF0.8910069143863101
aa(lp676
F-0.4539897323218329
aF-3.823790491608512e-05
aF0.8910069143863101
aa(lp677
F-0.4539897323218329
aF-3.823790491608512e-05
aF0.8910069143863101
aa(lp678
F-0.4539897323218329
aF-3.823790491608512e-05
aF0.8910069143863101
aassg76
(dp679
g4
g10
sg20
(lp680
(lp681
F0.7974579384612437
aF-0.8430542056572444
aF0.30999323320330563
aa(lp682
F0.794106873350222
aF-0.9429980416508713
aF0.30999015067198177
aa(lp683
F0.6142079684796455
aF-0.9369661244192996
aF0.30998921101100124
aa(lp684
F0.6175590335906672
aF-0.8370222884256726
aF0.30999229354232516
aa(lp685
F0.5111088085201498
aF-0.7093530222119352
aF0.15999155248547636
aa(lp686
F0.4819229163428693
aF-0.8049991601183912
aF0.15999273462093738
aa(lp687
F0.3097598681904344
aF-0.7524645543043366
aF0.1599861900832783
aa(lp688
F0.33894576036771484
aF-0.6568184163978805
aF0.15998500794781728
aa(lp689
F0.6386957301553954
aF-1.14984713888534
aF0.9474988190301094
aa(lp690
F0.6049003894425576
aF-1.1793810681477646
aF0.930480535664995
aa(lp691
F0.6312330818278151
aF-1.2172194174921536
aF0.9438539657306981
aa(lp692
F0.6650284225406529
aF-1.187685488229729
aF0.9608722490958125
aasg34
g5
(g6
(I0
tp693
g8
tp694
Rp695
(I1
(I3
tp696
g15
I00
S'\xe1jp\x9e\xaeR\xe0?qL\x91kg3\xe9\xbfP\x7frt*\xb2\xef?'
p697
tp698
bsg41
g10
sg42
(lp699
(lp700
F-3.12591291331611e-13
aF-3.7460091891103785e-08
aF0.9999999999999993
aa(lp701
F-3.12591291331611e-13
aF-3.7460091891103785e-08
aF0.9999999999999993
aa(lp702
F-3.12591291331611e-13
aF-3.7460091891103785e-08
aF0.9999999999999993
aa(lp703
F-3.12591291331611e-13
aF-3.7460091891103785e-08
aF0.9999999999999993
aa(lp704
F-3.125913844910809e-13
aF-3.7460091891103785e-08
aF0.9999999999999993
aa(lp705
F-3.125913844910809e-13
aF-3.7460091891103785e-08
aF0.9999999999999993
aa(lp706
F-3.125913844910809e-13
aF-3.7460091891103785e-08
aF0.9999999999999993
aa(lp707
F-3.125913844910809e-13
aF-3.7460091891103785e-08
aF0.9999999999999993
aa(lp708
F-0.4539897323218329
aF-3.823790491608512e-05
aF0.8910069143863101
aa(lp709
F-0.4539897323218329
aF-3.823790491608512e-05
aF0.8910069143863101
aa(lp710
F-0.4539897323218329
aF-3.823790491608512e-05
aF0.8910069143863101
aa(lp711
F-0.4539897323218329
aF-3.823790491608512e-05
aF0.8910069143863101
aassa(dp712
g2
(dp713
g4
g10
sg20
(lp714
(lp715
F0.8899212511926758
aF-0.8315159805585027
aF0.30999628460759204
aa(lp716
F0.8863056578118186
aF-0.9314505965583992
aF0.3099932088896423
aa(lp717
F0.7064233489283033
aF-0.9249425284534092
aF0.30999267542036074
aa(lp718
F0.7100389423091605
aF-0.8250079124535126
aF0.30999575113831046
aa(lp719
F0.5111088085201498
aF-0.7093530222119352
aF0.15999155248547636
aa(lp720
F0.4819229163428693
aF-0.8049991601183912
aF0.15999273462093738
aa(lp721
F0.3097598681904344
aF-0.7524645543043366
aF0.1599861900832783
aa(lp722
F0.33894576036771484
aF-0.6568184163978805
aF0.15998500794781728
aa(lp723
F0.7095393596058551
aF-1.1503573232681246
aF0.9835845980857919
aa(lp724
F0.67582882995259
aF-1.1800204355184865
aF0.9666228775793817
aa(lp725
F0.7022735622771983
aF-1.2177575675899095
aF0.9800610693105672
aa(lp726
F0.7359840919304633
aF-1.1880944553395476
aF0.9970227898169775
aasg34
g5
(g6
(I0
tp727
g8
tp728
Rp729
(I1
(I3
tp730
g15
I00
S"\xfaC'C\xff\x04\xe3?$<P\xb6\x14\xd9\xe8\xbf\xb0\xad\x1e_\x80^\xf0?"
p731
tp732
bsg41
g10
sg42
(lp733
(lp734
F0.0
aF-3.7460111536732874e-08
aF0.9999999999999993
aa(lp735
F0.0
aF-3.7460111536732874e-08
aF0.9999999999999993
aa(lp736
F0.0
aF-3.7460111536732874e-08
aF0.9999999999999993
aa(lp737
F0.0
aF-3.7460111536732874e-08
aF0.9999999999999993
aa(lp738
F-3.125913844910809e-13
aF-3.7460091891103785e-08
aF0.9999999999999993
aa(lp739
F-3.125913844910809e-13
aF-3.7460091891103785e-08
aF0.9999999999999993
aa(lp740
F-3.125913844910809e-13
aF-3.7460091891103785e-08
aF0.9999999999999993
aa(lp741
F-3.125913844910809e-13
aF-3.7460091891103785e-08
aF0.9999999999999993
aa(lp742
F-0.4539897323218329
aF-3.823790491608512e-05
aF0.8910069143863101
aa(lp743
F-0.4539897323218329
aF-3.823790491608512e-05
aF0.8910069143863101
aa(lp744
F-0.4539897323218329
aF-3.823790491608512e-05
aF0.8910069143863101
aa(lp745
F-0.4539897323218329
aF-3.823790491608512e-05
aF0.8910069143863101
aassg56
(dp746
g20
(lp747
(lp748
F0.8899212511926758
aF-0.8315159805585027
aF0.30999628460759204
aa(lp749
F0.8863056578118186
aF-0.9314505965583992
aF0.3099932088896423
aa(lp750
F0.7064233489283033
aF-0.9249425284534092
aF0.30999267542036074
aa(lp751
F0.7100389423091605
aF-0.8250079124535126
aF0.30999575113831046
aa(lp752
F0.5111088085201498
aF-0.7093530222119352
aF0.15999155248547636
aa(lp753
F0.4819229163428693
aF-0.8049991601183912
aF0.15999273462093738
aa(lp754
F0.3097598681904344
aF-0.7524645543043366
aF0.1599861900832783
aa(lp755
F0.33894576036771484
aF-0.6568184163978805
aF0.15998500794781728
aasg42
(lp756
(lp757
F0.0
aF-3.7460111536732874e-08
aF0.9999999999999993
aa(lp758
F0.0
aF-3.7460111536732874e-08
aF0.9999999999999993
aa(lp759
F0.0
aF-3.7460111536732874e-08
aF0.9999999999999993
aa(lp760
F0.0
aF-3.7460111536732874e-08
aF0.9999999999999993
aa(lp761
F-3.125913844910809e-13
aF-3.7460091891103785e-08
aF0.9999999999999993
aa(lp762
F-3.125913844910809e-13
aF-3.7460091891103785e-08
aF0.9999999999999993
aa(lp763
F-3.125913844910809e-13
aF-3.7460091891103785e-08
aF0.9999999999999993
aa(lp764
F-3.125913844910809e-13
aF-3.7460091891103785e-08
aF0.9999999999999993
aassg76
(dp765
g4
g10
sg20
(lp766
(lp767
F0.8899212511926758
aF-0.8315159805585027
aF0.30999628460759204
aa(lp768
F0.8863056578118186
aF-0.9314505965583992
aF0.3099932088896423
aa(lp769
F0.7064233489283033
aF-0.9249425284534092
aF0.30999267542036074
aa(lp770
F0.7100389423091605
aF-0.8250079124535126
aF0.30999575113831046
aa(lp771
F0.5111088085201498
aF-0.7093530222119352
aF0.15999155248547636
aa(lp772
F0.4819229163428693
aF-0.8049991601183912
aF0.15999273462093738
aa(lp773
F0.3097598681904344
aF-0.7524645543043366
aF0.1599861900832783
aa(lp774
F0.33894576036771484
aF-0.6568184163978805
aF0.15998500794781728
aa(lp775
F0.6386957301553954
aF-1.14984713888534
aF0.9474988190301094
aa(lp776
F0.6049003894425576
aF-1.1793810681477646
aF0.930480535664995
aa(lp777
F0.6312330818278151
aF-1.2172194174921536
aF0.9438539657306981
aa(lp778
F0.6650284225406529
aF-1.187685488229729
aF0.9608722490958125
aasg34
g5
(g6
(I0
tp779
g8
tp780
Rp781
(I1
(I3
tp782
g15
I00
S"\x16bl\xc7\xb7\xf5\xe1?\x99'\x11+O\xfd\xe8\xbf\xe4\x1d_s\n\x1a\xf0?"
p783
tp784
bsg41
g10
sg42
(lp785
(lp786
F0.0
aF-3.7460111536732874e-08
aF0.9999999999999993
aa(lp787
F0.0
aF-3.7460111536732874e-08
aF0.9999999999999993
aa(lp788
F0.0
aF-3.7460111536732874e-08
aF0.9999999999999993
aa(lp789
F0.0
aF-3.7460111536732874e-08
aF0.9999999999999993
aa(lp790
F-3.125913844910809e-13
aF-3.7460091891103785e-08
aF0.9999999999999993
aa(lp791
F-3.125913844910809e-13
aF-3.7460091891103785e-08
aF0.9999999999999993
aa(lp792
F-3.125913844910809e-13
aF-3.7460091891103785e-08
aF0.9999999999999993
aa(lp793
F-3.125913844910809e-13
aF-3.7460091891103785e-08
aF0.9999999999999993
aa(lp794
F-0.4539897323218329
aF-3.823790491608512e-05
aF0.8910069143863101
aa(lp795
F-0.4539897323218329
aF-3.823790491608512e-05
aF0.8910069143863101
aa(lp796
F-0.4539897323218329
aF-3.823790491608512e-05
aF0.8910069143863101
aa(lp797
F-0.4539897323218329
aF-3.823790491608512e-05
aF0.8910069143863101
aassa(dp798
g2
(dp799
g4
g10
sg20
(lp800
(lp801
F0.8899212511926758
aF-0.8315159805585027
aF0.30999628460759204
aa(lp802
F0.8863056578118186
aF-0.9314505965583992
aF0.3099932088896423
aa(lp803
F0.7064233489283033
aF-0.9249425284534092
aF0.30999267542036074
aa(lp804
F0.7100389423091605
aF-0.8250079124535126
aF0.30999575113831046
aa(lp805
F0.8197113031020069
aF-0.7059150503034936
aF0.30999097826260896
aa(lp806
F0.8092652470191288
aF-0.8053679532495805
aF0.30999379625004936
aa(lp807
F0.6302500216935587
aF-0.7865650521934846
aF0.3099974857013226
aa(lp808
F0.6406960777764368
aF-0.6871121492473976
aF0.3099946677138822
aa(lp809
F0.7095393596058551
aF-1.1503573232681246
aF0.9835845980857919
aa(lp810
F0.67582882995259
aF-1.1800204355184865
aF0.9666228775793817
aa(lp811
F0.7022735622771983
aF-1.2177575675899095
aF0.9800610693105672
aa(lp812
F0.7359840919304633
aF-1.1880944553395476
aF0.9970227898169775
aasg34
g5
(g6
(I0
tp813
g8
tp814
Rp815
(I1
(I3
tp816
g15
I00
S'\x1c-\n]ri\xe5?^\x85\x1f\x02\xf1\xb2\xe8\xbfq\xe65n\x06\xd4\xf0?'
p817
tp818
bsg41
g10
sg42
(lp819
(lp820
F0.0
aF-3.7460111536732874e-08
aF0.9999999999999993
aa(lp821
F0.0
aF-3.7460111536732874e-08
aF0.9999999999999993
aa(lp822
F0.0
aF-3.7460111536732874e-08
aF0.9999999999999993
aa(lp823
F0.0
aF-3.7460111536732874e-08
aF0.9999999999999993
aa(lp824
F0.0
aF-3.7460111536732874e-08
aF0.9999999999999993
aa(lp825
F0.0
aF-3.7460111536732874e-08
aF0.9999999999999993
aa(lp826
F0.0
aF-3.7460111536732874e-08
aF0.9999999999999993
aa(lp827
F0.0
aF-3.7460111536732874e-08
aF0.9999999999999993
aa(lp828
F-0.4539897323218329
aF-3.823790491608512e-05
aF0.8910069143863101
aa(lp829
F-0.4539897323218329
aF-3.823790491608512e-05
aF0.8910069143863101
aa(lp830
F-0.4539897323218329
aF-3.823790491608512e-05
aF0.8910069143863101
aa(lp831
F-0.4539897323218329
aF-3.823790491608512e-05
aF0.8910069143863101
aassg56
(dp832
g20
(lp833
(lp834
F0.8899212511926758
aF-0.8315159805585027
aF0.30999628460759204
aa(lp835
F0.8863056578118186
aF-0.9314505965583992
aF0.3099932088896423
aa(lp836
F0.7064233489283033
aF-0.9249425284534092
aF0.30999267542036074
aa(lp837
F0.7100389423091605
aF-0.8250079124535126
aF0.30999575113831046
aa(lp838
F0.7095393596058551
aF-1.1503573232681246
aF0.9835845980857919
aa(lp839
F0.67582882995259
aF-1.1800204355184865
aF0.9666228775793817
aa(lp840
F0.7022735622771983
aF-1.2177575675899095
aF0.9800610693105672
aa(lp841
F0.7359840919304633
aF-1.1880944553395476
aF0.9970227898169775
aasg42
(lp842
(lp843
F0.0
aF-3.7460111536732874e-08
aF0.9999999999999993
aa(lp844
F0.0
aF-3.7460111536732874e-08
aF0.9999999999999993
aa(lp845
F0.0
aF-3.7460111536732874e-08
aF0.9999999999999993
aa(lp846
F0.0
aF-3.7460111536732874e-08
aF0.9999999999999993
aa(lp847
F-0.4539897323218329
aF-3.823790491608512e-05
aF0.8910069143863101
aa(lp848
F-0.4539897323218329
aF-3.823790491608512e-05
aF0.8910069143863101
aa(lp849
F-0.4539897323218329
aF-3.823790491608512e-05
aF0.8910069143863101
aa(lp850
F-0.4539897323218329
aF-3.823790491608512e-05
aF0.8910069143863101
aassg76
(dp851
g4
g10
sg20
(lp852
(lp853
F0.8899212511926758
aF-0.8315159805585027
aF0.30999628460759204
aa(lp854
F0.8863056578118186
aF-0.9314505965583992
aF0.3099932088896423
aa(lp855
F0.7064233489283033
aF-0.9249425284534092
aF0.30999267542036074
aa(lp856
F0.7100389423091605
aF-0.8250079124535126
aF0.30999575113831046
aa(lp857
F0.5111088085201498
aF-0.7093530222119352
aF0.15999155248547636
aa(lp858
F0.4819229163428693
aF-0.8049991601183912
aF0.15999273462093738
aa(lp859
F0.3097598681904344
aF-0.7524645543043366
aF0.1599861900832783
aa(lp860
F0.33894576036771484
aF-0.6568184163978805
aF0.15998500794781728
aa(lp861
F0.7095393596058551
aF-1.1503573232681246
aF0.9835845980857919
aa(lp862
F0.67582882995259
aF-1.1800204355184865
aF0.9666228775793817
aa(lp863
F0.7022735622771983
aF-1.2177575675899095
aF0.9800610693105672
aa(lp864
F0.7359840919304633
aF-1.1880944553395476
aF0.9970227898169775
aasg34
g5
(g6
(I0
tp865
g8
tp866
Rp867
(I1
(I3
tp868
g15
I00
S"\xfaC'C\xff\x04\xe3?$<P\xb6\x14\xd9\xe8\xbf\xb0\xad\x1e_\x80^\xf0?"
p869
tp870
bsg41
g10
sg42
(lp871
(lp872
F0.0
aF-3.7460111536732874e-08
aF0.9999999999999993
aa(lp873
F0.0
aF-3.7460111536732874e-08
aF0.9999999999999993
aa(lp874
F0.0
aF-3.7460111536732874e-08
aF0.9999999999999993
aa(lp875
F0.0
aF-3.7460111536732874e-08
aF0.9999999999999993
aa(lp876
F-3.125913844910809e-13
aF-3.7460091891103785e-08
aF0.9999999999999993
aa(lp877
F-3.125913844910809e-13
aF-3.7460091891103785e-08
aF0.9999999999999993
aa(lp878
F-3.125913844910809e-13
aF-3.7460091891103785e-08
aF0.9999999999999993
aa(lp879
F-3.125913844910809e-13
aF-3.7460091891103785e-08
aF0.9999999999999993
aa(lp880
F-0.4539897323218329
aF-3.823790491608512e-05
aF0.8910069143863101
aa(lp881
F-0.4539897323218329
aF-3.823790491608512e-05
aF0.8910069143863101
aa(lp882
F-0.4539897323218329
aF-3.823790491608512e-05
aF0.8910069143863101
aa(lp883
F-0.4539897323218329
aF-3.823790491608512e-05
aF0.8910069143863101
aassa(dp884
g2
(dp885
g4
g10
sg20
(lp886
(lp887
F0.8899212511926758
aF-0.8315159805585027
aF0.30999628460759204
aa(lp888
F0.8863056578118186
aF-0.9314505965583992
aF0.3099932088896423
aa(lp889
F0.7064233489283033
aF-0.9249425284534092
aF0.30999267542036074
aa(lp890
F0.7100389423091605
aF-0.8250079124535126
aF0.30999575113831046
aa(lp891
F0.8197113031020069
aF-0.7059150503034936
aF0.30999097826260896
aa(lp892
F0.8092652470191288
aF-0.8053679532495805
aF0.30999379625004936
aa(lp893
F0.6302500216935587
aF-0.7865650521934846
aF0.3099974857013226
aa(lp894
F0.6406960777764368
aF-0.6871121492473976
aF0.3099946677138822
aa(lp895
F0.7922107578131311
aF-1.1486811459256032
aF1.0256969339095627
aa(lp896
F0.7585815001292852
aF-1.1784674903462953
aF1.008789931978877
aa(lp897
F0.7851329916313351
aF-1.216107394894984
aF1.0222901500153856
aa(lp898
F0.818762249315181
aF-1.1863210504742918
aF1.0391971519460714
aasg34
g5
(g6
(I0
tp899
g8
tp900
Rp901
(I1
(I3
tp902
g15
I00
S'>\xa6\x0e?\x95\x87\xe6?LnU\x11\x10\x95\xe8\xbf\xd8d\xaa\xd6v\x15\xf1?'
p903
tp904
bsg41
g10
sg42
(lp905
(lp906
F0.0
aF-3.7460111536732874e-08
aF0.9999999999999993
aa(lp907
F0.0
aF-3.7460111536732874e-08
aF0.9999999999999993
aa(lp908
F0.0
aF-3.7460111536732874e-08
aF0.9999999999999993
aa(lp909
F0.0
aF-3.7460111536732874e-08
aF0.9999999999999993
aa(lp910
F0.0
aF-3.7460111536732874e-08
aF0.9999999999999993
aa(lp911
F0.0
aF-3.7460111536732874e-08
aF0.9999999999999993
aa(lp912
F0.0
aF-3.7460111536732874e-08
aF0.9999999999999993
aa(lp913
F0.0
aF-3.7460111536732874e-08
aF0.9999999999999993
aa(lp914
F-0.4539897323218329
aF-3.823790491608512e-05
aF0.8910069143863101
aa(lp915
F-0.4539897323218329
aF-3.823790491608512e-05
aF0.8910069143863101
aa(lp916
F-0.4539897323218329
aF-3.823790491608512e-05
aF0.8910069143863101
aa(lp917
F-0.4539897323218329
aF-3.823790491608512e-05
aF0.8910069143863101
aassg56
(dp918
g20
(lp919
(lp920
F0.8899212511926758
aF-0.8315159805585027
aF0.30999628460759204
aa(lp921
F0.8863056578118186
aF-0.9314505965583992
aF0.3099932088896423
aa(lp922
F0.7064233489283033
aF-0.9249425284534092
aF0.30999267542036074
aa(lp923
F0.7100389423091605
aF-0.8250079124535126
aF0.30999575113831046
aa(lp924
F0.8197113031020069
aF-0.7059150503034936
aF0.30999097826260896
aa(lp925
F0.8092652470191288
aF-0.8053679532495805
aF0.30999379625004936
aa(lp926
F0.6302500216935587
aF-0.7865650521934846
aF0.3099974857013226
aa(lp927
F0.6406960777764368
aF-0.6871121492473976
aF0.3099946677138822
aasg42
(lp928
(lp929
F0.0
aF-3.7460111536732874e-08
aF0.9999999999999993
aa(lp930
F0.0
aF-3.7460111536732874e-08
aF0.9999999999999993
aa(lp931
F0.0
aF-3.7460111536732874e-08
aF0.9999999999999993
aa(lp932
F0.0
aF-3.7460111536732874e-08
aF0.9999999999999993
aa(lp933
F0.0
aF-3.7460111536732874e-08
aF0.9999999999999993
aa(lp934
F0.0
aF-3.7460111536732874e-08
aF0.9999999999999993
aa(lp935
F0.0
aF-3.7460111536732874e-08
aF0.9999999999999993
aa(lp936
F0.0
aF-3.7460111536732874e-08
aF0.9999999999999993
aassg76
(dp937
g4
g10
sg20
(lp938
(lp939
F0.8899212511926758
aF-0.8315159805585027
aF0.30999628460759204
aa(lp940
F0.8863056578118186
aF-0.9314505965583992
aF0.3099932088896423
aa(lp941
F0.7064233489283033
aF-0.9249425284534092
aF0.30999267542036074
aa(lp942
F0.7100389423091605
aF-0.8250079124535126
aF0.30999575113831046
aa(lp943
F0.8197113031020069
aF-0.7059150503034936
aF0.30999097826260896
aa(lp944
F0.8092652470191288
aF-0.8053679532495805
aF0.30999379625004936
aa(lp945
F0.6302500216935587
aF-0.7865650521934846
aF0.3099974857013226
aa(lp946
F0.6406960777764368
aF-0.6871121492473976
aF0.3099946677138822
aa(lp947
F0.7095393596058551
aF-1.1503573232681246
aF0.9835845980857919
aa(lp948
F0.67582882995259
aF-1.1800204355184865
aF0.9666228775793817
aa(lp949
F0.7022735622771983
aF-1.2177575675899095
aF0.9800610693105672
aa(lp950
F0.7359840919304633
aF-1.1880944553395476
aF0.9970227898169775
aasg34
g5
(g6
(I0
tp951
g8
tp952
Rp953
(I1
(I3
tp954
g15
I00
S'\x1c-\n]ri\xe5?^\x85\x1f\x02\xf1\xb2\xe8\xbfq\xe65n\x06\xd4\xf0?'
p955
tp956
bsg41
g10
sg42
(lp957
(lp958
F0.0
aF-3.7460111536732874e-08
aF0.9999999999999993
aa(lp959
F0.0
aF-3.7460111536732874e-08
aF0.9999999999999993
aa(lp960
F0.0
aF-3.7460111536732874e-08
aF0.9999999999999993
aa(lp961
F0.0
aF-3.7460111536732874e-08
aF0.9999999999999993
aa(lp962
F0.0
aF-3.7460111536732874e-08
aF0.9999999999999993
aa(lp963
F0.0
aF-3.7460111536732874e-08
aF0.9999999999999993
aa(lp964
F0.0
aF-3.7460111536732874e-08
aF0.9999999999999993
aa(lp965
F0.0
aF-3.7460111536732874e-08
aF0.9999999999999993
aa(lp966
F-0.4539897323218329
aF-3.823790491608512e-05
aF0.8910069143863101
aa(lp967
F-0.4539897323218329
aF-3.823790491608512e-05
aF0.8910069143863101
aa(lp968
F-0.4539897323218329
aF-3.823790491608512e-05
aF0.8910069143863101
aa(lp969
F-0.4539897323218329
aF-3.823790491608512e-05
aF0.8910069143863101
aassa(dp970
g2
(dp971
g4
g10
sg20
(lp972
(lp973
F0.8899212511926758
aF-0.8315159805585027
aF0.30999628460759204
aa(lp974
F0.8863056578118186
aF-0.9314505965583992
aF0.3099932088896423
aa(lp975
F0.7064233489283033
aF-0.9249425284534092
aF0.30999267542036074
aa(lp976
F0.7100389423091605
aF-0.8250079124535126
aF0.30999575113831046
aa(lp977
F0.8816861724328116
aF-0.5561062386091229
aF0.310001232450335
aa(lp978
F0.8877747953733501
aF-0.6559207098497937
aF0.30999994864226355
aa(lp979
F0.7081087471455407
aF-0.6668802311753882
aF0.3100025107964557
aa(lp980
F0.7020201242050021
aF-0.5670657599347173
aF0.3100037946045271
aa(lp981
F0.7922107578131311
aF-1.1486811459256032
aF1.0256969339095627
aa(lp982
F0.7585815001292852
aF-1.1784674903462953
aF1.008789931978877
aa(lp983
F0.7851329916313351
aF-1.216107394894984
aF1.0222901500153856
aa(lp984
F0.818762249315181
aF-1.1863210504742918
aF1.0391971519460714
aasg34
g5
(g6
(I0
tp985
g8
tp986
Rp987
(I1
(I3
tp988
g15
I00
S'4YO\xd2\x1b)\xe8?J\xaf\xa2\x86\x98\x10\xe8\xbfkd5\xceFW\xf1?'
p989
tp990
bsg41
g10
sg42
(lp991
(lp992
F0.0
aF-3.7460111536732874e-08
aF0.9999999999999993
aa(lp993
F0.0
aF-3.7460111536732874e-08
aF0.9999999999999993
aa(lp994
F0.0
aF-3.7460111536732874e-08
aF0.9999999999999993
aa(lp995
F0.0
aF-3.7460111536732874e-08
aF0.9999999999999993
aa(lp996
F0.0
aF-3.7460111536732874e-08
aF0.9999999999999993
aa(lp997
F0.0
aF-3.7460111536732874e-08
aF0.9999999999999993
aa(lp998
F0.0
aF-3.7460111536732874e-08
aF0.9999999999999993
aa(lp999
F0.0
aF-3.7460111536732874e-08
aF0.9999999999999993
aa(lp1000
F-0.4539897323218329
aF-3.823790491608512e-05
aF0.8910069143863101
aa(lp1001
F-0.4539897323218329
aF-3.823790491608512e-05
aF0.8910069143863101
aa(lp1002
F-0.4539897323218329
aF-3.823790491608512e-05
aF0.8910069143863101
aa(lp1003
F-0.4539897323218329
aF-3.823790491608512e-05
aF0.8910069143863101
aassg56
(dp1004
g20
(lp1005
(lp1006
F0.8899212511926758
aF-0.8315159805585027
aF0.30999628460759204
aa(lp1007
F0.8863056578118186
aF-0.9314505965583992
aF0.3099932088896423
aa(lp1008
F0.7064233489283033
aF-0.9249425284534092
aF0.30999267542036074
aa(lp1009
F0.7100389423091605
aF-0.8250079124535126
aF0.30999575113831046
aa(lp1010
F0.7922107578131311
aF-1.1486811459256032
aF1.0256969339095627
aa(lp1011
F0.7585815001292852
aF-1.1784674903462953
aF1.008789931978877
aa(lp1012
F0.7851329916313351
aF-1.216107394894984
aF1.0222901500153856
aa(lp1013
F0.818762249315181
aF-1.1863210504742918
aF1.0391971519460714
aasg42
(lp1014
(lp1015
F0.0
aF-3.7460111536732874e-08
aF0.9999999999999993
aa(lp1016
F0.0
aF-3.7460111536732874e-08
aF0.9999999999999993
aa(lp1017
F0.0
aF-3.7460111536732874e-08
aF0.9999999999999993
aa(lp1018
F0.0
aF-3.7460111536732874e-08
aF0.9999999999999993
aa(lp1019
F-0.4539897323218329
aF-3.823790491608512e-05
aF0.8910069143863101
aa(lp1020
F-0.4539897323218329
aF-3.823790491608512e-05
aF0.8910069143863101
aa(lp1021
F-0.4539897323218329
aF-3.823790491608512e-05
aF0.8910069143863101
aa(lp1022
F-0.4539897323218329
aF-3.823790491608512e-05
aF0.8910069143863101
aassg76
(dp1023
g4
g10
sg20
(lp1024
(lp1025
F0.8899212511926758
aF-0.8315159805585027
aF0.30999628460759204
aa(lp1026
F0.8863056578118186
aF-0.9314505965583992
aF0.3099932088896423
aa(lp1027
F0.7064233489283033
aF-0.9249425284534092
aF0.30999267542036074
aa(lp1028
F0.7100389423091605
aF-0.8250079124535126
aF0.30999575113831046
aa(lp1029
F0.8197113031020069
aF-0.7059150503034936
aF0.30999097826260896
aa(lp1030
F0.8092652470191288
aF-0.8053679532495805
aF0.30999379625004936
aa(lp1031
F0.6302500216935587
aF-0.7865650521934846
aF0.3099974857013226
aa(lp1032
F0.6406960777764368
aF-0.6871121492473976
aF0.3099946677138822
aa(lp1033
F0.7922107578131311
aF-1.1486811459256032
aF1.0256969339095627
aa(lp1034
F0.7585815001292852
aF-1.1784674903462953
aF1.008789931978877
aa(lp1035
F0.7851329916313351
aF-1.216107394894984
aF1.0222901500153856
aa(lp1036
F0.818762249315181
aF-1.1863210504742918
aF1.0391971519460714
aasg34
g5
(g6
(I0
tp1037
g8
tp1038
Rp1039
(I1
(I3
tp1040
g15
I00
S'>\xa6\x0e?\x95\x87\xe6?LnU\x11\x10\x95\xe8\xbf\xd8d\xaa\xd6v\x15\xf1?'
p1041
tp1042
bsg41
g10
sg42
(lp1043
(lp1044
F0.0
aF-3.7460111536732874e-08
aF0.9999999999999993
aa(lp1045
F0.0
aF-3.7460111536732874e-08
aF0.9999999999999993
aa(lp1046
F0.0
aF-3.7460111536732874e-08
aF0.9999999999999993
aa(lp1047
F0.0
aF-3.7460111536732874e-08
aF0.9999999999999993
aa(lp1048
F0.0
aF-3.7460111536732874e-08
aF0.9999999999999993
aa(lp1049
F0.0
aF-3.7460111536732874e-08
aF0.9999999999999993
aa(lp1050
F0.0
aF-3.7460111536732874e-08
aF0.9999999999999993
aa(lp1051
F0.0
aF-3.7460111536732874e-08
aF0.9999999999999993
aa(lp1052
F-0.4539897323218329
aF-3.823790491608512e-05
aF0.8910069143863101
aa(lp1053
F-0.4539897323218329
aF-3.823790491608512e-05
aF0.8910069143863101
aa(lp1054
F-0.4539897323218329
aF-3.823790491608512e-05
aF0.8910069143863101
aa(lp1055
F-0.4539897323218329
aF-3.823790491608512e-05
aF0.8910069143863101
aassa(dp1056
g2
(dp1057
g4
g10
sg20
(lp1058
(lp1059
F0.8899212511926758
aF-0.8315159805585027
aF0.30999628460759204
aa(lp1060
F0.8863056578118186
aF-0.9314505965583992
aF0.3099932088896423
aa(lp1061
F0.7064233489283033
aF-0.9249425284534092
aF0.30999267542036074
aa(lp1062
F0.7100389423091605
aF-0.8250079124535126
aF0.30999575113831046
aa(lp1063
F0.8816861724328116
aF-0.5561062386091229
aF0.310001232450335
aa(lp1064
F0.8877747953733501
aF-0.6559207098497937
aF0.30999994864226355
aa(lp1065
F0.7081087471455407
aF-0.6668802311753882
aF0.3100025107964557
aa(lp1066
F0.7020201242050021
aF-0.5670657599347173
aF0.3100037946045271
aa(lp1067
F0.950042820367401
aF-1.208769282316955
aF1.1069441088449214
aa(lp1068
F0.923488023182241
aF-1.1726152235031577
aF1.0898640976766607
aa(lp1069
F0.8899782729483026
aF-1.203923596208096
aF1.0756907974796033
aa(lp1070
F0.9165330701334625
aF-1.2400776550218933
aF1.092770808647864
aasg34
g5
(g6
(I0
tp1071
g8
tp1072
Rp1073
(I1
(I3
tp1074
g15
I00
S'\xc7\xeb\xbc\x0f\x83A\xe9?\x8fj`m\xea\xcd\xe7\xbfI!CV\xb9\x8b\xf1?'
p1075
tp1076
bsg41
g10
sg42
(lp1077
(lp1078
F0.0
aF-3.7460111536732874e-08
aF0.9999999999999993
aa(lp1079
F0.0
aF-3.7460111536732874e-08
aF0.9999999999999993
aa(lp1080
F0.0
aF-3.7460111536732874e-08
aF0.9999999999999993
aa(lp1081
F0.0
aF-3.7460111536732874e-08
aF0.9999999999999993
aa(lp1082
F0.0
aF-3.7460111536732874e-08
aF0.9999999999999993
aa(lp1083
F0.0
aF-3.7460111536732874e-08
aF0.9999999999999993
aa(lp1084
F0.0
aF-3.7460111536732874e-08
aF0.9999999999999993
aa(lp1085
F0.0
aF-3.7460111536732874e-08
aF0.9999999999999993
aa(lp1086
F-0.4539901642583891
aF-7.360270835217737e-05
aF0.8910066920844547
aa(lp1087
F-0.4539901642583891
aF-7.360270835217737e-05
aF0.8910066920844547
aa(lp1088
F-0.4539901642583891
aF-7.360270835217737e-05
aF0.8910066920844547
aa(lp1089
F-0.4539901642583891
aF-7.360270835217737e-05
aF0.8910066920844547
aassg56
(dp1090
g20
(lp1091
(lp1092
F0.8899212511926758
aF-0.8315159805585027
aF0.30999628460759204
aa(lp1093
F0.8863056578118186
aF-0.9314505965583992
aF0.3099932088896423
aa(lp1094
F0.7064233489283033
aF-0.9249425284534092
aF0.30999267542036074
aa(lp1095
F0.7100389423091605
aF-0.8250079124535126
aF0.30999575113831046
aa(lp1096
F0.8816861724328116
aF-0.5561062386091229
aF0.310001232450335
aa(lp1097
F0.8877747953733501
aF-0.6559207098497937
aF0.30999994864226355
aa(lp1098
F0.7081087471455407
aF-0.6668802311753882
aF0.3100025107964557
aa(lp1099
F0.7020201242050021
aF-0.5670657599347173
aF0.3100037946045271
aasg42
(lp1100
(lp1101
F0.0
aF-3.7460111536732874e-08
aF0.9999999999999993
aa(lp1102
F0.0
aF-3.7460111536732874e-08
aF0.9999999999999993
aa(lp1103
F0.0
aF-3.7460111536732874e-08
aF0.9999999999999993
aa(lp1104
F0.0
aF-3.7460111536732874e-08
aF0.9999999999999993
aa(lp1105
F0.0
aF-3.7460111536732874e-08
aF0.9999999999999993
aa(lp1106
F0.0
aF-3.7460111536732874e-08
aF0.9999999999999993
aa(lp1107
F0.0
aF-3.7460111536732874e-08
aF0.9999999999999993
aa(lp1108
F0.0
aF-3.7460111536732874e-08
aF0.9999999999999993
aassg76
(dp1109
g4
g10
sg20
(lp1110
(lp1111
F0.8899212511926758
aF-0.8315159805585027
aF0.30999628460759204
aa(lp1112
F0.8863056578118186
aF-0.9314505965583992
aF0.3099932088896423
aa(lp1113
F0.7064233489283033
aF-0.9249425284534092
aF0.30999267542036074
aa(lp1114
F0.7100389423091605
aF-0.8250079124535126
aF0.30999575113831046
aa(lp1115
F0.8816861724328116
aF-0.5561062386091229
aF0.310001232450335
aa(lp1116
F0.8877747953733501
aF-0.6559207098497937
aF0.30999994864226355
aa(lp1117
F0.7081087471455407
aF-0.6668802311753882
aF0.3100025107964557
aa(lp1118
F0.7020201242050021
aF-0.5670657599347173
aF0.3100037946045271
aa(lp1119
F0.7922107578131311
aF-1.1486811459256032
aF1.0256969339095627
aa(lp1120
F0.7585815001292852
aF-1.1784674903462953
aF1.008789931978877
aa(lp1121
F0.7851329916313351
aF-1.216107394894984
aF1.0222901500153856
aa(lp1122
F0.818762249315181
aF-1.1863210504742918
aF1.0391971519460714
aasg34
g5
(g6
(I0
tp1123
g8
tp1124
Rp1125
(I1
(I3
tp1126
g15
I00
S'4YO\xd2\x1b)\xe8?J\xaf\xa2\x86\x98\x10\xe8\xbfkd5\xceFW\xf1?'
p1127
tp1128
bsg41
g10
sg42
(lp1129
(lp1130
F0.0
aF-3.7460111536732874e-08
aF0.9999999999999993
aa(lp1131
F0.0
aF-3.7460111536732874e-08
aF0.9999999999999993
aa(lp1132
F0.0
aF-3.7460111536732874e-08
aF0.9999999999999993
aa(lp1133
F0.0
aF-3.7460111536732874e-08
aF0.9999999999999993
aa(lp1134
F0.0
aF-3.7460111536732874e-08
aF0.9999999999999993
aa(lp1135
F0.0
aF-3.7460111536732874e-08
aF0.9999999999999993
aa(lp1136
F0.0
aF-3.7460111536732874e-08
aF0.9999999999999993
aa(lp1137
F0.0
aF-3.7460111536732874e-08
aF0.9999999999999993
aa(lp1138
F-0.4539897323218329
aF-3.823790491608512e-05
aF0.8910069143863101
aa(lp1139
F-0.4539897323218329
aF-3.823790491608512e-05
aF0.8910069143863101
aa(lp1140
F-0.4539897323218329
aF-3.823790491608512e-05
aF0.8910069143863101
aa(lp1141
F-0.4539897323218329
aF-3.823790491608512e-05
aF0.8910069143863101
aassa(dp1142
g2
(dp1143
g4
g10
sg20
(lp1144
(lp1145
F0.8899212511926758
aF-0.8315159805585027
aF0.30999628460759204
aa(lp1146
F0.8863056578118186
aF-0.9314505965583992
aF0.3099932088896423
aa(lp1147
F0.7064233489283033
aF-0.9249425284534092
aF0.30999267542036074
aa(lp1148
F0.7100389423091605
aF-0.8250079124535126
aF0.30999575113831046
aa(lp1149
F1.0821541393289695
aF-0.5005245321976578
aF0.45999285691078445
aa(lp1150
F1.1016759308832884
aF-0.5986005213778662
aF0.459991837521255
aa(lp1151
F0.9251391504974824
aF-0.6337397460676262
aF0.45998409910960025
aa(lp1152
F0.9056173589431635
aF-0.5356637568874177
aF0.4599851184991297
aa(lp1153
F0.950042820367401
aF-1.208769282316955
aF1.1069441088449214
aa(lp1154
F0.923488023182241
aF-1.1726152235031577
aF1.0898640976766607
aa(lp1155
F0.8899782729483026
aF-1.203923596208096
aF1.0756907974796033
aa(lp1156
F0.9165330701334625
aF-1.2400776550218933
aF1.092770808647864
aasg34
g5
(g6
(I0
tp1157
g8
tp1158
Rp1159
(I1
(I3
tp1160
g15
I00
S'\x85\xc3?\xd8\xa5Y\xeb?\xc36KG\x90\xa1\xe7\xbf\x9c|\xe3\x9d\x0b\x0e\xf2?'
p1161
tp1162
bsg41
g10
sg42
(lp1163
(lp1164
F0.0
aF-3.7460111536732874e-08
aF0.9999999999999993
aa(lp1165
F0.0
aF-3.7460111536732874e-08
aF0.9999999999999993
aa(lp1166
F0.0
aF-3.7460111536732874e-08
aF0.9999999999999993
aa(lp1167
F0.0
aF-3.7460111536732874e-08
aF0.9999999999999993
aa(lp1168
F-3.12591291331611e-13
aF-3.7460091891103785e-08
aF0.9999999999999993
aa(lp1169
F-3.12591291331611e-13
aF-3.7460091891103785e-08
aF0.9999999999999993
aa(lp1170
F-3.12591291331611e-13
aF-3.7460091891103785e-08
aF0.9999999999999993
aa(lp1171
F-3.12591291331611e-13
aF-3.7460091891103785e-08
aF0.9999999999999993
aa(lp1172
F-0.4539901642583891
aF-7.360270835217737e-05
aF0.8910066920844547
aa(lp1173
F-0.4539901642583891
aF-7.360270835217737e-05
aF0.8910066920844547
aa(lp1174
F-0.4539901642583891
aF-7.360270835217737e-05
aF0.8910066920844547
aa(lp1175
F-0.4539901642583891
aF-7.360270835217737e-05
aF0.8910066920844547
aassg56
(dp1176
g20
(lp1177
(lp1178
F0.8899212511926758
aF-0.8315159805585027
aF0.30999628460759204
aa(lp1179
F0.8863056578118186
aF-0.9314505965583992
aF0.3099932088896423
aa(lp1180
F0.7064233489283033
aF-0.9249425284534092
aF0.30999267542036074
aa(lp1181
F0.7100389423091605
aF-0.8250079124535126
aF0.30999575113831046
aa(lp1182
F0.950042820367401
aF-1.208769282316955
aF1.1069441088449214
aa(lp1183
F0.923488023182241
aF-1.1726152235031577
aF1.0898640976766607
aa(lp1184
F0.8899782729483026
aF-1.203923596208096
aF1.0756907974796033
aa(lp1185
F0.9165330701334625
aF-1.2400776550218933
aF1.092770808647864
aasg42
(lp1186
(lp1187
F0.0
aF-3.7460111536732874e-08
aF0.9999999999999993
aa(lp1188
F0.0
aF-3.7460111536732874e-08
aF0.9999999999999993
aa(lp1189
F0.0
aF-3.7460111536732874e-08
aF0.9999999999999993
aa(lp1190
F0.0
aF-3.7460111536732874e-08
aF0.9999999999999993
aa(lp1191
F-0.4539901642583891
aF-7.360270835217737e-05
aF0.8910066920844547
aa(lp1192
F-0.4539901642583891
aF-7.360270835217737e-05
aF0.8910066920844547
aa(lp1193
F-0.4539901642583891
aF-7.360270835217737e-05
aF0.8910066920844547
aa(lp1194
F-0.4539901642583891
aF-7.360270835217737e-05
aF0.8910066920844547
aassg76
(dp1195
g4
g10
sg20
(lp1196
(lp1197
F0.8899212511926758
aF-0.8315159805585027
aF0.30999628460759204
aa(lp1198
F0.8863056578118186
aF-0.9314505965583992
aF0.3099932088896423
aa(lp1199
F0.7064233489283033
aF-0.9249425284534092
aF0.30999267542036074
aa(lp1200
F0.7100389423091605
aF-0.8250079124535126
aF0.30999575113831046
aa(lp1201
F0.8816861724328116
aF-0.5561062386091229
aF0.310001232450335
aa(lp1202
F0.8877747953733501
aF-0.6559207098497937
aF0.30999994864226355
aa(lp1203
F0.7081087471455407
aF-0.6668802311753882
aF0.3100025107964557
aa(lp1204
F0.7020201242050021
aF-0.5670657599347173
aF0.3100037946045271
aa(lp1205
F0.950042820367401
aF-1.208769282316955
aF1.1069441088449214
aa(lp1206
F0.923488023182241
aF-1.1726152235031577
aF1.0898640976766607
aa(lp1207
F0.8899782729483026
aF-1.203923596208096
aF1.0756907974796033
aa(lp1208
F0.9165330701334625
aF-1.2400776550218933
aF1.092770808647864
aasg34
g5
(g6
(I0
tp1209
g8
tp1210
Rp1211
(I1
(I3
tp1212
g15
I00
S'\xc7\xeb\xbc\x0f\x83A\xe9?\x8fj`m\xea\xcd\xe7\xbfI!CV\xb9\x8b\xf1?'
p1213
tp1214
bsg41
g10
sg42
(lp1215
(lp1216
F0.0
aF-3.7460111536732874e-08
aF0.9999999999999993
aa(lp1217
F0.0
aF-3.7460111536732874e-08
aF0.9999999999999993
aa(lp1218
F0.0
aF-3.7460111536732874e-08
aF0.9999999999999993
aa(lp1219
F0.0
aF-3.7460111536732874e-08
aF0.9999999999999993
aa(lp1220
F0.0
aF-3.7460111536732874e-08
aF0.9999999999999993
aa(lp1221
F0.0
aF-3.7460111536732874e-08
aF0.9999999999999993
aa(lp1222
F0.0
aF-3.7460111536732874e-08
aF0.9999999999999993
aa(lp1223
F0.0
aF-3.7460111536732874e-08
aF0.9999999999999993
aa(lp1224
F-0.4539901642583891
aF-7.360270835217737e-05
aF0.8910066920844547
aa(lp1225
F-0.4539901642583891
aF-7.360270835217737e-05
aF0.8910066920844547
aa(lp1226
F-0.4539901642583891
aF-7.360270835217737e-05
aF0.8910066920844547
aa(lp1227
F-0.4539901642583891
aF-7.360270835217737e-05
aF0.8910066920844547
aassa(dp1228
g2
(dp1229
g4
g10
sg20
(lp1230
(lp1231
F0.8899212511926758
aF-0.8315159805585027
aF0.30999628460759204
aa(lp1232
F0.8863056578118186
aF-0.9314505965583992
aF0.3099932088896423
aa(lp1233
F0.7064233489283033
aF-0.9249425284534092
aF0.30999267542036074
aa(lp1234
F0.7100389423091605
aF-0.8250079124535126
aF0.30999575113831046
aa(lp1235
F1.0821541393289695
aF-0.5005245321976578
aF0.45999285691078445
aa(lp1236
F1.1016759308832884
aF-0.5986005213778662
aF0.459991837521255
aa(lp1237
F0.9251391504974824
aF-0.6337397460676262
aF0.45998409910960025
aa(lp1238
F0.9056173589431635
aF-0.5356637568874177
aF0.4599851184991297
aa(lp1239
F1.0387447648812411
aF-1.1940744288960046
aF1.1520444686952458
aa(lp1240
F1.0117400490775106
aF-1.1583024136070166
aF1.1348657536264093
aa(lp1241
F0.9785639220286222
aF-1.1900552413520256
aF1.120897843077674
aa(lp1242
F1.0055686378323525
aF-1.2258272566410136
aF1.1380765581465102
aasg34
g5
(g6
(I0
tp1243
g8
tp1244
Rp1245
(I1
(I3
tp1246
g15
I00
S'<\xd6\xfc\xce\xabT\xec?\xecU\xf8\x1b\xeb_\xe7\xbf\xf1\x00\n\xe3\xebG\xf2?'
p1247
tp1248
bsg41
g10
sg42
(lp1249
(lp1250
F0.0
aF-3.7460111536732874e-08
aF0.9999999999999993
aa(lp1251
F0.0
aF-3.7460111536732874e-08
aF0.9999999999999993
aa(lp1252
F0.0
aF-3.7460111536732874e-08
aF0.9999999999999993
aa(lp1253
F0.0
aF-3.7460111536732874e-08
aF0.9999999999999993
aa(lp1254
F-3.12591291331611e-13
aF-3.7460091891103785e-08
aF0.9999999999999993
aa(lp1255
F-3.12591291331611e-13
aF-3.7460091891103785e-08
aF0.9999999999999993
aa(lp1256
F-3.12591291331611e-13
aF-3.7460091891103785e-08
aF0.9999999999999993
aa(lp1257
F-3.12591291331611e-13
aF-3.7460091891103785e-08
aF0.9999999999999993
aa(lp1258
F-0.4539897323218329
aF-3.823790491608512e-05
aF0.8910069143863101
aa(lp1259
F-0.4539897323218329
aF-3.823790491608512e-05
aF0.8910069143863101
aa(lp1260
F-0.4539897323218329
aF-3.823790491608512e-05
aF0.8910069143863101
aa(lp1261
F-0.4539897323218329
aF-3.823790491608512e-05
aF0.8910069143863101
aassg56
(dp1262
g20
(lp1263
(lp1264
F0.8899212511926758
aF-0.8315159805585027
aF0.30999628460759204
aa(lp1265
F0.8863056578118186
aF-0.9314505965583992
aF0.3099932088896423
aa(lp1266
F0.7064233489283033
aF-0.9249425284534092
aF0.30999267542036074
aa(lp1267
F0.7100389423091605
aF-0.8250079124535126
aF0.30999575113831046
aa(lp1268
F1.0821541393289695
aF-0.5005245321976578
aF0.45999285691078445
aa(lp1269
F1.1016759308832884
aF-0.5986005213778662
aF0.459991837521255
aa(lp1270
F0.9251391504974824
aF-0.6337397460676262
aF0.45998409910960025
aa(lp1271
F0.9056173589431635
aF-0.5356637568874177
aF0.4599851184991297
aasg42
(lp1272
(lp1273
F0.0
aF-3.7460111536732874e-08
aF0.9999999999999993
aa(lp1274
F0.0
aF-3.7460111536732874e-08
aF0.9999999999999993
aa(lp1275
F0.0
aF-3.7460111536732874e-08
aF0.9999999999999993
aa(lp1276
F0.0
aF-3.7460111536732874e-08
aF0.9999999999999993
aa(lp1277
F-3.12591291331611e-13
aF-3.7460091891103785e-08
aF0.9999999999999993
aa(lp1278
F-3.12591291331611e-13
aF-3.7460091891103785e-08
aF0.9999999999999993
aa(lp1279
F-3.12591291331611e-13
aF-3.7460091891103785e-08
aF0.9999999999999993
aa(lp1280
F-3.12591291331611e-13
aF-3.7460091891103785e-08
aF0.9999999999999993
aassg76
(dp1281
g4
g10
sg20
(lp1282
(lp1283
F0.8899212511926758
aF-0.8315159805585027
aF0.30999628460759204
aa(lp1284
F0.8863056578118186
aF-0.9314505965583992
aF0.3099932088896423
aa(lp1285
F0.7064233489283033
aF-0.9249425284534092
aF0.30999267542036074
aa(lp1286
F0.7100389423091605
aF-0.8250079124535126
aF0.30999575113831046
aa(lp1287
F1.0821541393289695
aF-0.5005245321976578
aF0.45999285691078445
aa(lp1288
F1.1016759308832884
aF-0.5986005213778662
aF0.459991837521255
aa(lp1289
F0.9251391504974824
aF-0.6337397460676262
aF0.45998409910960025
aa(lp1290
F0.9056173589431635
aF-0.5356637568874177
aF0.4599851184991297
aa(lp1291
F0.950042820367401
aF-1.208769282316955
aF1.1069441088449214
aa(lp1292
F0.923488023182241
aF-1.1726152235031577
aF1.0898640976766607
aa(lp1293
F0.8899782729483026
aF-1.203923596208096
aF1.0756907974796033
aa(lp1294
F0.9165330701334625
aF-1.2400776550218933
aF1.092770808647864
aasg34
g5
(g6
(I0
tp1295
g8
tp1296
Rp1297
(I1
(I3
tp1298
g15
I00
S'\x85\xc3?\xd8\xa5Y\xeb?\xc36KG\x90\xa1\xe7\xbf\x9c|\xe3\x9d\x0b\x0e\xf2?'
p1299
tp1300
bsg41
g10
sg42
(lp1301
(lp1302
F0.0
aF-3.7460111536732874e-08
aF0.9999999999999993
aa(lp1303
F0.0
aF-3.7460111536732874e-08
aF0.9999999999999993
aa(lp1304
F0.0
aF-3.7460111536732874e-08
aF0.9999999999999993
aa(lp1305
F0.0
aF-3.7460111536732874e-08
aF0.9999999999999993
aa(lp1306
F-3.12591291331611e-13
aF-3.7460091891103785e-08
aF0.9999999999999993
aa(lp1307
F-3.12591291331611e-13
aF-3.7460091891103785e-08
aF0.9999999999999993
aa(lp1308
F-3.12591291331611e-13
aF-3.7460091891103785e-08
aF0.9999999999999993
aa(lp1309
F-3.12591291331611e-13
aF-3.7460091891103785e-08
aF0.9999999999999993
aa(lp1310
F-0.4539901642583891
aF-7.360270835217737e-05
aF0.8910066920844547
aa(lp1311
F-0.4539901642583891
aF-7.360270835217737e-05
aF0.8910066920844547
aa(lp1312
F-0.4539901642583891
aF-7.360270835217737e-05
aF0.8910066920844547
aa(lp1313
F-0.4539901642583891
aF-7.360270835217737e-05
aF0.8910066920844547
aassa(dp1314
g2
(dp1315
g4
g10
sg20
(lp1316
(lp1317
F0.8899212511926758
aF-0.8315159805585027
aF0.30999628460759204
aa(lp1318
F0.8863056578118186
aF-0.9314505965583992
aF0.3099932088896423
aa(lp1319
F0.7064233489283033
aF-0.9249425284534092
aF0.30999267542036074
aa(lp1320
F0.7100389423091605
aF-0.8250079124535126
aF0.30999575113831046
aa(lp1321
F1.11247161251349
aF-0.6793699328487608
aF0.4599991583908274
aa(lp1322
F1.1098615415993214
aF-0.7793358646946864
aF0.4599992170385119
aa(lp1323
F0.9299228643497865
aF-0.7746377370541055
aF0.4599940813129956
aa(lp1324
F0.932532935263955
aF-0.6746718052081799
aF0.4599940226653111
aa(lp1325
F1.0387447648812411
aF-1.1940744288960046
aF1.1520444686952458
aa(lp1326
F1.0117400490775106
aF-1.1583024136070166
aF1.1348657536264093
aa(lp1327
F0.9785639220286222
aF-1.1900552413520256
aF1.120897843077674
aa(lp1328
F1.0055686378323525
aF-1.2258272566410136
aF1.1380765581465102
aasg34
g5
(g6
(I0
tp1329
g8
tp1330
Rp1331
(I1
(I3
tp1332
g15
I00
S'\xfb\x96\xe2]\x1a\x01\xee?\xa2J\xd3a0\xb9\xe7\xbf\xabX\xf8\xe6\xa5\x87\xf2?'
p1333
tp1334
bsg41
g10
sg42
(lp1335
(lp1336
F0.0
aF-3.7460111536732874e-08
aF0.9999999999999993
aa(lp1337
F0.0
aF-3.7460111536732874e-08
aF0.9999999999999993
aa(lp1338
F0.0
aF-3.7460111536732874e-08
aF0.9999999999999993
aa(lp1339
F0.0
aF-3.7460111536732874e-08
aF0.9999999999999993
aa(lp1340
F-3.12591291331611e-13
aF-3.7460091891103785e-08
aF0.9999999999999993
aa(lp1341
F-3.12591291331611e-13
aF-3.7460091891103785e-08
aF0.9999999999999993
aa(lp1342
F-3.12591291331611e-13
aF-3.7460091891103785e-08
aF0.9999999999999993
aa(lp1343
F-3.12591291331611e-13
aF-3.7460091891103785e-08
aF0.9999999999999993
aa(lp1344
F-0.4539897323218329
aF-3.823790491608512e-05
aF0.8910069143863101
aa(lp1345
F-0.4539897323218329
aF-3.823790491608512e-05
aF0.8910069143863101
aa(lp1346
F-0.4539897323218329
aF-3.823790491608512e-05
aF0.8910069143863101
aa(lp1347
F-0.4539897323218329
aF-3.823790491608512e-05
aF0.8910069143863101
aassg56
(dp1348
g20
(lp1349
(lp1350
F0.8899212511926758
aF-0.8315159805585027
aF0.30999628460759204
aa(lp1351
F0.8863056578118186
aF-0.9314505965583992
aF0.3099932088896423
aa(lp1352
F0.7064233489283033
aF-0.9249425284534092
aF0.30999267542036074
aa(lp1353
F0.7100389423091605
aF-0.8250079124535126
aF0.30999575113831046
aa(lp1354
F1.0387447648812411
aF-1.1940744288960046
aF1.1520444686952458
aa(lp1355
F1.0117400490775106
aF-1.1583024136070166
aF1.1348657536264093
aa(lp1356
F0.9785639220286222
aF-1.1900552413520256
aF1.120897843077674
aa(lp1357
F1.0055686378323525
aF-1.2258272566410136
aF1.1380765581465102
aasg42
(lp1358
(lp1359
F0.0
aF-3.7460111536732874e-08
aF0.9999999999999993
aa(lp1360
F0.0
aF-3.7460111536732874e-08
aF0.9999999999999993
aa(lp1361
F0.0
aF-3.7460111536732874e-08
aF0.9999999999999993
aa(lp1362
F0.0
aF-3.7460111536732874e-08
aF0.9999999999999993
aa(lp1363
F-0.4539897323218329
aF-3.823790491608512e-05
aF0.8910069143863101
aa(lp1364
F-0.4539897323218329
aF-3.823790491608512e-05
aF0.8910069143863101
aa(lp1365
F-0.4539897323218329
aF-3.823790491608512e-05
aF0.8910069143863101
aa(lp1366
F-0.4539897323218329
aF-3.823790491608512e-05
aF0.8910069143863101
aassg76
(dp1367
g4
g10
sg20
(lp1368
(lp1369
F0.8899212511926758
aF-0.8315159805585027
aF0.30999628460759204
aa(lp1370
F0.8863056578118186
aF-0.9314505965583992
aF0.3099932088896423
aa(lp1371
F0.7064233489283033
aF-0.9249425284534092
aF0.30999267542036074
aa(lp1372
F0.7100389423091605
aF-0.8250079124535126
aF0.30999575113831046
aa(lp1373
F1.0821541393289695
aF-0.5005245321976578
aF0.45999285691078445
aa(lp1374
F1.1016759308832884
aF-0.5986005213778662
aF0.459991837521255
aa(lp1375
F0.9251391504974824
aF-0.6337397460676262
aF0.45998409910960025
aa(lp1376
F0.9056173589431635
aF-0.5356637568874177
aF0.4599851184991297
aa(lp1377
F1.0387447648812411
aF-1.1940744288960046
aF1.1520444686952458
aa(lp1378
F1.0117400490775106
aF-1.1583024136070166
aF1.1348657536264093
aa(lp1379
F0.9785639220286222
aF-1.1900552413520256
aF1.120897843077674
aa(lp1380
F1.0055686378323525
aF-1.2258272566410136
aF1.1380765581465102
aasg34
g5
(g6
(I0
tp1381
g8
tp1382
Rp1383
(I1
(I3
tp1384
g15
I00
S'<\xd6\xfc\xce\xabT\xec?\xecU\xf8\x1b\xeb_\xe7\xbf\xf1\x00\n\xe3\xebG\xf2?'
p1385
tp1386
bsg41
g10
sg42
(lp1387
(lp1388
F0.0
aF-3.7460111536732874e-08
aF0.9999999999999993
aa(lp1389
F0.0
aF-3.7460111536732874e-08
aF0.9999999999999993
aa(lp1390
F0.0
aF-3.7460111536732874e-08
aF0.9999999999999993
aa(lp1391
F0.0
aF-3.7460111536732874e-08
aF0.9999999999999993
aa(lp1392
F-3.12591291331611e-13
aF-3.7460091891103785e-08
aF0.9999999999999993
aa(lp1393
F-3.12591291331611e-13
aF-3.7460091891103785e-08
aF0.9999999999999993
aa(lp1394
F-3.12591291331611e-13
aF-3.7460091891103785e-08
aF0.9999999999999993
aa(lp1395
F-3.12591291331611e-13
aF-3.7460091891103785e-08
aF0.9999999999999993
aa(lp1396
F-0.4539897323218329
aF-3.823790491608512e-05
aF0.8910069143863101
aa(lp1397
F-0.4539897323218329
aF-3.823790491608512e-05
aF0.8910069143863101
aa(lp1398
F-0.4539897323218329
aF-3.823790491608512e-05
aF0.8910069143863101
aa(lp1399
F-0.4539897323218329
aF-3.823790491608512e-05
aF0.8910069143863101
aassa(dp1400
g2
(dp1401
g4
g10
sg20
(lp1402
(lp1403
F1.1052859399799553
aF-0.9809593782548478
aF0.460002788291365
aa(lp1404
F1.0872409052150844
aF-1.0793177877592213
aF0.4600021906253748
aa(lp1405
F0.9101957681822685
aF-1.0468367252299575
aF0.460007742206218
aa(lp1406
F0.9282408029471393
aF-0.948478315725584
aF0.4600083398722081
aa(lp1407
F1.11247161251349
aF-0.6793699328487608
aF0.4599991583908274
aa(lp1408
F1.1098615415993214
aF-0.7793358646946864
aF0.4599992170385119
aa(lp1409
F0.9299228643497865
aF-0.7746377370541055
aF0.4599940813129956
aa(lp1410
F0.932532935263955
aF-0.6746718052081799
aF0.4599940226653111
aa(lp1411
F1.0387447648812411
aF-1.1940744288960046
aF1.1520444686952458
aa(lp1412
F1.0117400490775106
aF-1.1583024136070166
aF1.1348657536264093
aa(lp1413
F0.9785639220286222
aF-1.1900552413520256
aF1.120897843077674
aa(lp1414
F1.0055686378323525
aF-1.2258272566410136
aF1.1380765581465102
aasg34
g5
(g6
(I0
tp1415
g8
tp1416
Rp1417
(I1
(I3
tp1418
g15
I00
S'\xce\xa4\xe5\x01c\x93\xef?t\xb7\x1b\xc7;\xde\xe7\xbf_3\x8f\xee8\xff\xf2?'
p1419
tp1420
bsg41
g10
sg42
(lp1421
(lp1422
F0.0
aF-3.7460111536732874e-08
aF0.9999999999999993
aa(lp1423
F0.0
aF-3.7460111536732874e-08
aF0.9999999999999993
aa(lp1424
F0.0
aF-3.7460111536732874e-08
aF0.9999999999999993
aa(lp1425
F0.0
aF-3.7460111536732874e-08
aF0.9999999999999993
aa(lp1426
F-3.12591291331611e-13
aF-3.7460091891103785e-08
aF0.9999999999999993
aa(lp1427
F-3.12591291331611e-13
aF-3.7460091891103785e-08
aF0.9999999999999993
aa(lp1428
F-3.12591291331611e-13
aF-3.7460091891103785e-08
aF0.9999999999999993
aa(lp1429
F-3.12591291331611e-13
aF-3.7460091891103785e-08
aF0.9999999999999993
aa(lp1430
F-0.4539897323218329
aF-3.823790491608512e-05
aF0.8910069143863101
aa(lp1431
F-0.4539897323218329
aF-3.823790491608512e-05
aF0.8910069143863101
aa(lp1432
F-0.4539897323218329
aF-3.823790491608512e-05
aF0.8910069143863101
aa(lp1433
F-0.4539897323218329
aF-3.823790491608512e-05
aF0.8910069143863101
aassg56
(dp1434
g20
(lp1435
(lp1436
F1.11247161251349
aF-0.6793699328487608
aF0.4599991583908274
aa(lp1437
F1.1098615415993214
aF-0.7793358646946864
aF0.4599992170385119
aa(lp1438
F0.9299228643497865
aF-0.7746377370541055
aF0.4599940813129956
aa(lp1439
F0.932532935263955
aF-0.6746718052081799
aF0.4599940226653111
aa(lp1440
F1.0387447648812411
aF-1.1940744288960046
aF1.1520444686952458
aa(lp1441
F1.0117400490775106
aF-1.1583024136070166
aF1.1348657536264093
aa(lp1442
F0.9785639220286222
aF-1.1900552413520256
aF1.120897843077674
aa(lp1443
F1.0055686378323525
aF-1.2258272566410136
aF1.1380765581465102
aasg42
(lp1444
(lp1445
F-3.12591291331611e-13
aF-3.7460091891103785e-08
aF0.9999999999999993
aa(lp1446
F-3.12591291331611e-13
aF-3.7460091891103785e-08
aF0.9999999999999993
aa(lp1447
F-3.12591291331611e-13
aF-3.7460091891103785e-08
aF0.9999999999999993
aa(lp1448
F-3.12591291331611e-13
aF-3.7460091891103785e-08
aF0.9999999999999993
aa(lp1449
F-0.4539897323218329
aF-3.823790491608512e-05
aF0.8910069143863101
aa(lp1450
F-0.4539897323218329
aF-3.823790491608512e-05
aF0.8910069143863101
aa(lp1451
F-0.4539897323218329
aF-3.823790491608512e-05
aF0.8910069143863101
aa(lp1452
F-0.4539897323218329
aF-3.823790491608512e-05
aF0.8910069143863101
aassg76
(dp1453
g4
g10
sg20
(lp1454
(lp1455
F0.8899212511926758
aF-0.8315159805585027
aF0.30999628460759204
aa(lp1456
F0.8863056578118186
aF-0.9314505965583992
aF0.3099932088896423
aa(lp1457
F0.7064233489283033
aF-0.9249425284534092
aF0.30999267542036074
aa(lp1458
F0.7100389423091605
aF-0.8250079124535126
aF0.30999575113831046
aa(lp1459
F1.11247161251349
aF-0.6793699328487608
aF0.4599991583908274
aa(lp1460
F1.1098615415993214
aF-0.7793358646946864
aF0.4599992170385119
aa(lp1461
F0.9299228643497865
aF-0.7746377370541055
aF0.4599940813129956
aa(lp1462
F0.932532935263955
aF-0.6746718052081799
aF0.4599940226653111
aa(lp1463
F1.0387447648812411
aF-1.1940744288960046
aF1.1520444686952458
aa(lp1464
F1.0117400490775106
aF-1.1583024136070166
aF1.1348657536264093
aa(lp1465
F0.9785639220286222
aF-1.1900552413520256
aF1.120897843077674
aa(lp1466
F1.0055686378323525
aF-1.2258272566410136
aF1.1380765581465102
aasg34
g5
(g6
(I0
tp1467
g8
tp1468
Rp1469
(I1
(I3
tp1470
g15
I00
S'\xfb\x96\xe2]\x1a\x01\xee?\xa2J\xd3a0\xb9\xe7\xbf\xabX\xf8\xe6\xa5\x87\xf2?'
p1471
tp1472
bsg41
g10
sg42
(lp1473
(lp1474
F0.0
aF-3.7460111536732874e-08
aF0.9999999999999993
aa(lp1475
F0.0
aF-3.7460111536732874e-08
aF0.9999999999999993
aa(lp1476
F0.0
aF-3.7460111536732874e-08
aF0.9999999999999993
aa(lp1477
F0.0
aF-3.7460111536732874e-08
aF0.9999999999999993
aa(lp1478
F-3.12591291331611e-13
aF-3.7460091891103785e-08
aF0.9999999999999993
aa(lp1479
F-3.12591291331611e-13
aF-3.7460091891103785e-08
aF0.9999999999999993
aa(lp1480
F-3.12591291331611e-13
aF-3.7460091891103785e-08
aF0.9999999999999993
aa(lp1481
F-3.12591291331611e-13
aF-3.7460091891103785e-08
aF0.9999999999999993
aa(lp1482
F-0.4539897323218329
aF-3.823790491608512e-05
aF0.8910069143863101
aa(lp1483
F-0.4539897323218329
aF-3.823790491608512e-05
aF0.8910069143863101
aa(lp1484
F-0.4539897323218329
aF-3.823790491608512e-05
aF0.8910069143863101
aa(lp1485
F-0.4539897323218329
aF-3.823790491608512e-05
aF0.8910069143863101
aassa.